
main.elf:     file format elf32-littlenios2
main.elf
architecture: nios2:r1, flags 0x00000112:
EXEC_P, HAS_SYMS, D_PAGED
start address 0x20000000

Program Header:
    LOAD off    0x00001000 vaddr 0x00600000 paddr 0x00600000 align 2**12
         filesz 0x00000000 memsz 0x00000000 flags r-x
    LOAD off    0x00001020 vaddr 0x04018020 paddr 0x04018020 align 2**12
         filesz 0x00000248 memsz 0x00000248 flags r-x
    LOAD off    0x00002000 vaddr 0x20000000 paddr 0x20000000 align 2**12
         filesz 0x0009a9b4 memsz 0x000e1c30 flags rwx

Sections:
Idx Name          Size      VMA       LMA       File off  Algn
  0 .entry        00000000  00600000  00600000  00001000  2**5
                  CONTENTS, ALLOC, LOAD, READONLY, CODE
  1 .exceptions   00000248  04018020  04018020  00001020  2**2
                  CONTENTS, ALLOC, LOAD, READONLY, CODE
  2 .text         00048100  20000000  20000000  00002000  2**2
                  CONTENTS, ALLOC, LOAD, READONLY, CODE
  3 .rodata       00001a08  20048100  20048100  0004a100  2**2
                  CONTENTS, ALLOC, LOAD, READONLY, DATA
  4 .rwdata       00050eac  20049b08  20049b08  0004bb08  2**2
                  CONTENTS, ALLOC, LOAD, DATA, SMALL_DATA
  5 .bss          0004727c  2009a9b4  2009a9b4  0009c9b4  2**2
                  ALLOC, SMALL_DATA
  6 .sf_ctr_avl_mem 00000000  00600020  00600020  0009c9b4  2**0
                  CONTENTS
  7 .onchip_mem   00000000  04018268  04018268  0009c9b4  2**0
                  CONTENTS
  8 .emif         00000000  200e1c30  200e1c30  0009c9b4  2**0
                  CONTENTS
  9 .comment      00000023  00000000  00000000  0009c9b4  2**0
                  CONTENTS, READONLY
 10 .debug_aranges 000010e0  00000000  00000000  0009c9d8  2**3
                  CONTENTS, READONLY, DEBUGGING
 11 .debug_info   000297d9  00000000  00000000  0009dab8  2**0
                  CONTENTS, READONLY, DEBUGGING
 12 .debug_abbrev 0000a5c3  00000000  00000000  000c7291  2**0
                  CONTENTS, READONLY, DEBUGGING
 13 .debug_line   0000d2e3  00000000  00000000  000d1854  2**0
                  CONTENTS, READONLY, DEBUGGING
 14 .debug_frame  00002e84  00000000  00000000  000deb38  2**2
                  CONTENTS, READONLY, DEBUGGING
 15 .debug_str    00005e23  00000000  00000000  000e19bc  2**0
                  CONTENTS, READONLY, DEBUGGING
 16 .debug_loc    00019d18  00000000  00000000  000e77df  2**0
                  CONTENTS, READONLY, DEBUGGING
 17 .debug_alt_sim_info 00000050  00000000  00000000  001014f8  2**2
                  CONTENTS, READONLY, DEBUGGING
 18 .debug_ranges 00001d00  00000000  00000000  00101548  2**3
                  CONTENTS, READONLY, DEBUGGING
 19 .thread_model 00000003  00000000  00000000  0010d8a9  2**0
                  CONTENTS, READONLY
 20 .cpu          0000000a  00000000  00000000  0010d8ac  2**0
                  CONTENTS, READONLY
 21 .qsys         00000001  00000000  00000000  0010d8b6  2**0
                  CONTENTS, READONLY
 22 .simulation_enabled 00000001  00000000  00000000  0010d8b7  2**0
                  CONTENTS, READONLY
 23 .stderr_dev   00000009  00000000  00000000  0010d8b8  2**0
                  CONTENTS, READONLY
 24 .stdin_dev    00000009  00000000  00000000  0010d8c1  2**0
                  CONTENTS, READONLY
 25 .stdout_dev   00000009  00000000  00000000  0010d8ca  2**0
                  CONTENTS, READONLY
 26 .sopc_system_name 00000008  00000000  00000000  0010d8d3  2**0
                  CONTENTS, READONLY
 27 .quartus_project_dir 00000016  00000000  00000000  0010d8db  2**0
                  CONTENTS, READONLY
 28 .sopcinfo     00194f77  00000000  00000000  0010d8f1  2**0
                  CONTENTS, READONLY
SYMBOL TABLE:
00600000 l    d  .entry	00000000 .entry
04018020 l    d  .exceptions	00000000 .exceptions
20000000 l    d  .text	00000000 .text
20048100 l    d  .rodata	00000000 .rodata
20049b08 l    d  .rwdata	00000000 .rwdata
2009a9b4 l    d  .bss	00000000 .bss
00600020 l    d  .sf_ctr_avl_mem	00000000 .sf_ctr_avl_mem
04018268 l    d  .onchip_mem	00000000 .onchip_mem
200e1c30 l    d  .emif	00000000 .emif
00000000 l    d  .comment	00000000 .comment
00000000 l    d  .debug_aranges	00000000 .debug_aranges
00000000 l    d  .debug_info	00000000 .debug_info
00000000 l    d  .debug_abbrev	00000000 .debug_abbrev
00000000 l    d  .debug_line	00000000 .debug_line
00000000 l    d  .debug_frame	00000000 .debug_frame
00000000 l    d  .debug_str	00000000 .debug_str
00000000 l    d  .debug_loc	00000000 .debug_loc
00000000 l    d  .debug_alt_sim_info	00000000 .debug_alt_sim_info
00000000 l    d  .debug_ranges	00000000 .debug_ranges
00000000 l    df *ABS*	00000000 ../main_bsp/obj/HAL/src/crt0.o
20000044 l       .text	00000000 alt_after_alt_main
00000000 l    df *ABS*	00000000 alt_irq_handler.c
00000000 l    df *ABS*	00000000 alt_instruction_exception_entry.c
00000000 l    df *ABS*	00000000 gev_main.c
200000d4 l     F .text	0000008c event_observe
20002628 l     F .text	00000078 width_write
200026a0 l     F .text	00000078 height_write
200028d0 l     F .text	00000078 offset_x_write
20002948 l     F .text	00000078 offset_y_write
20002ab0 l     F .text	000000dc acquisition_start
20002b8c l     F .text	00000050 acquisition_stop
20002a38 l     F .text	00000078 payload_type_write
200029c0 l     F .text	00000078 pixel_format_write
20002bdc l     F .text	00000060 field_count_write
20002c3c l     F .text	00000030 flash_open_dev
20002c6c l     F .text	00000034 flash_close_dev
20002ca0 l     F .text	0000018c flash_write_dev
20002e2c l     F .text	00000074 flash_read_dev
20001c58 l     F .text	000000a8 act_cmd_0
20001d00 l     F .text	000000d0 act_cmd_1
20001dd0 l     F .text	0000059c act_cmd_2
2000236c l     F .text	0000008c act_cmd_3
200023f8 l     F .text	0000008c act_cmd_4
20002484 l     F .text	0000008c act_cmd_5
20002510 l     F .text	0000008c act_cmd_6
2000259c l     F .text	0000008c act_cmd_7
20002718 l     F .text	00000078 width_max_write
20002790 l     F .text	00000064 width_max_read
200027f4 l     F .text	00000078 height_max_write
2000286c l     F .text	00000064 height_max_read
20002f1c l     F .text	000000b4 write_timestamp_sel
20002fd0 l     F .text	000000a4 read_timestamp_sel
20003074 l     F .text	00000098 write_ptp_set_priority1
2000310c l     F .text	00000058 read_ptp_set_priority1
20003164 l     F .text	00000098 write_ptp_set_priority2
200031fc l     F .text	00000058 read_ptp_set_priority2
20003254 l     F .text	00000098 write_ptp_set_domain_number
200032ec l     F .text	00000058 read_ptp_set_domain_number
20003344 l     F .text	000000e4 write_ptp_set_slave_only
20003428 l     F .text	00000070 read_ptp_set_slave_only
20003498 l     F .text	000000a0 write_ptp_set_log_announce_interval
20003538 l     F .text	00000060 read_ptp_set_log_announce_interval
20003598 l     F .text	000000a0 write_ptp_set_log_sync_interval
20003638 l     F .text	00000060 read_ptp_set_log_sync_interval
20003698 l     F .text	000000a0 write_ptp_set_log_min_delay_req_interval
20003738 l     F .text	00000060 read_ptp_set_log_min_delay_req_interval
20003798 l     F .text	00000098 write_ptp_set_announce_receipt_timeout
20003830 l     F .text	00000058 read_ptp_set_announce_receipt_timeout
20003888 l     F .text	00000104 write_set_timestamp_initial_value
2000398c l     F .text	00000054 write_timestamp_initial_value_high
200039e0 l     F .text	00000054 write_timestamp_initial_value_low
20003a34 l     F .text	000000e4 write_accept_broadcast_writereg
20003b18 l     F .text	00000070 read_accept_broadcast_writereg
20003b88 l     F .text	00000084 write_device_reset
20001bd0 l     F .text	00000088 read_mem_xml
20002ea0 l     F .text	0000007c ipconf_done
2009a9b6 l     O .bss	00000001 tgl.4621
2009aafc l     O .bss	00020000 cache.4716
00000000 l    df *ABS*	00000000 tse_mac_phy.c
2009a9d0 l     O .bss	00000001 g_current_page
20004280 l     F .text	00000164 alt_tse_phy_wr_mdio_reg_macspire
200044e4 l     F .text	000000c8 alt_tse_phy_set_adv_1000_macspire
200045ac l     F .text	00000150 alt_tse_phy_set_adv_100_macspire
200046fc l     F .text	000000c8 alt_tse_phy_set_adv_10_macspire
200047c4 l     F .text	0000035c alt_tse_phy_restart_an_macspire
200043e4 l     F .text	00000100 alt_tse_phy_rd_mdio_reg_macspire
00000000 l    df *ABS*	00000000 gev_engine.c
2009a9d4 l     O .bss	00000004 g_func_gev_ptp_init
2009a9d8 l     O .bss	00000004 g_func_gev_ptp_set_master_time
2009a9dc l     O .bss	00000004 g_func_gev_ptp_set_priority1
2009a9e0 l     O .bss	00000004 g_func_gev_ptp_set_priority2
2009a9e4 l     O .bss	00000004 g_func_gev_ptp_set_domain_number
2009a9e8 l     O .bss	00000004 g_func_gev_ptp_set_slave_only
2009a9ec l     O .bss	00000004 g_func_gev_ptp_set_log_announce_interval
2009a9f0 l     O .bss	00000004 g_func_gev_ptp_set_log_sync_interval
2009a9f4 l     O .bss	00000004 g_func_gev_ptp_set_log_min_delay_req_interval
2009a9f8 l     O .bss	00000004 g_func_gev_ptp_set_announce_receipt_timeout
2009a9fc l     O .bss	00000004 g_func_gev_ptp_get_state
2009aa00 l     O .bss	00000004 g_func_gev_ptp_open
2009aa04 l     O .bss	00000004 g_func_gev_ptp_close
2009aa08 l     O .bss	00000004 g_func_gev_ptp_start
2009aa0c l     O .bss	00000004 g_func_gev_ptp_stop
20004b78 l     F .text	00000040 gev_ptp_init
2000668c l     F .text	000000f0 get_receive_packetresend
20006988 l     F .text	000000d8 process_receive_packet
200057bc l     F .text	000006c8 initialize_gev_ip_system
20005e84 l     F .text	0000006c stop_gev_ip_system
20006174 l     F .text	00000160 persistent_ip_configuration
200062d4 l     F .text	000002c8 lla_ip_configuration
2000c1cc l     F .text	000004bc check_character_code
00000000 l    df *ABS*	00000000 gvcp.c
2000f5c4 l     F .text	0000005c send_pending_ack_packet
2000fb6c l     F .text	00000510 process_gvcp_forceip_cmd
2001007c l     F .text	00000738 process_gvcp_packetresend_cmd
200107b4 l     F .text	00000538 process_gvcp_readreg_cmd
2001106c l     F .text	000006b4 process_gvcp_writereg_cmd
20014a08 l     F .text	000009c8 process_gvcp_readmem_cmd
200153d0 l     F .text	00000b14 process_gvcp_writemem_cmd
20015ee4 l     F .text	00000c94 process_gvcp_action_cmd
20016b78 l     F .text	000000c8 process_gvcp_event_ack
20016c40 l     F .text	000000c8 process_gvcp_eventdata_ack
2000f620 l     F .text	00000210 prepare_gvcp_response_packet
2000f830 l     F .text	0000033c prepare_gvcp_pending_ack_packet
20010cec l     F .text	00000380 register_multiple_read
20011720 l     F .text	00000a38 register_multiple_write
20016d80 l     F .text	00000078 message_channel_arp_timeout
20016d08 l     F .text	00000078 stream_channel_arp_timeout
20016e40 l     F .text	00000100 enqueue_sac
2001703c l     F .text	000001b0 sort_sac_queue
00000000 l    df *ABS*	00000000 gvsp.c
20019b54 l     F .text	00000260 gvsp_transfer_pause
2009aa10 l     O .bss	00000008 block_id_cur.3949
2009aa18 l     O .bss	00000004 frm_read_cnt.3951
20019db4 l     F .text	00000f5c set_gvsp_leader_packet
2001ad10 l     F .text	000008d0 set_gvsp_payload_packet_header
2001b5e0 l     F .text	00000e10 set_gvsp_trailer_packet
20019a00 l     F .text	00000114 gvsp_transfer_restart
2009aa1c l     O .bss	00000002 block_id_cur.3976
2009aa20 l     O .bss	00000004 frm_read_cnt.3978
00000000 l    df *ABS*	00000000 macspire_gige_vision_ip_reg.c
2001c464 l     F .text	0000002c ioread8
2001c490 l     F .text	00000028 ioread32
2001c4b8 l     F .text	00000034 iowrite32
2009aa24 l     O .bss	00000004 g_func_gev_ptp_pkt_rcv_event
2001c4ec l     F .text	00000038 ptp_pkt_rcv_event
2001c730 l     F .text	0000038c gev_ip_irq_handler
2001cabc l     F .text	000000f8 resend_wait_final_timeout
2001cbf0 l     F .text	000006a4 receive_packet
2001d418 l     F .text	0000014c send_packet
00000000 l    df *ABS*	00000000 net.c
2009aa28 l     O .bss	00000001 g_igmp_join_flag
2009aa29 l     O .bss	00000001 g_igmp_report_wait_flag
2001dc74 l     F .text	0000019c send_icmp_ping_res_packet
2001e0d0 l     F .text	0000021c send_igmp_packet
2001e2ec l     F .text	00000070 igmp_report_timer_handle
00000000 l    df *ABS*	00000000 timer.c
2001f254 l     F .text	00000028 ioread32
2001f27c l     F .text	00000034 iowrite32
2001f2b0 l     F .text	00000040 iobitget32
2001f2f0 l     F .text	00000050 iobitset32
2001f340 l     F .text	00000054 iobitclr32
2001f394 l     F .text	0000006c iofldset32
2009aa2c l     O .bss	00000001 g_irq_timer1
2009aa30 l     O .bss	00000004 g_timer_base
2009aa34 l     O .bss	00000004 g_timer_irq_ic
2009aa38 l     O .bss	00000004 g_timer_irq
2001f400 l     F .text	00000068 timer1_irq_handler
2001f484 l     F .text	00000368 gev_timer_update
2001f7ec l     F .text	0000006c timer_init
2001f97c l     F .text	00000050 timer_stop
2001f858 l     F .text	000000c0 timer_set_parameter
2001f918 l     F .text	00000064 timer_start
00000000 l    df *ABS*	00000000 work_area.c
00000000 l    df *ABS*	00000000 bootstrap_reg.c
00000000 l    df *ABS*	00000000 dhcp_client.c
200baafc l     O .bss	00000048 g_dhc_state
2009a968 l     O .rwdata	00000004 g_xids
2009aa40 l     O .bss	00000004 g_dhcp_renew_retry_count
200229c4 l     F .text	000006e8 send_dhcp_discovery_packet
2002423c l     F .text	00000288 dhc_extract_opts
200230ac l     F .text	000009f4 send_dhcp_request_packet
200244c4 l     F .text	00000078 renew_timeout_process
2002453c l     F .text	00000078 rebind_timeout_process
200245b4 l     F .text	00000078 lease_timeout_process
20023aa0 l     F .text	0000079c send_dhcp_release_packet
20022918 l     F .text	000000ac dh_getlong
00000000 l    df *ABS*	00000000 sco_event_flag.c
200bab44 l     O .bss	0000006c g_event_flag
20024c94 l     F .text	00000078 is_agree_event_flag
00000000 l    df *ABS*	00000000 sco_scheduler.c
00000000 l    df *ABS*	00000000 sco_semaphore.c
200babb0 l     O .bss	00000050 g_semaphore
00000000 l    df *ABS*	00000000 sco_task.c
00000000 l    df *ABS*	00000000 sco_cpu.o
00000001 l       *ABS*	00000000 PSR_REG_STATUS_PIE
20025dd8 l       .text	00000000 cpu_in_task_ctx_mode
20025df4 l       .text	00000000 cpu_lock_end
20025e0c l       .text	00000000 cpu_unlock_end
20025e28 l       .text	00000000 enable_interrupt_end
00000000 l    df *ABS*	00000000 sco_dispatch.o
00000001 l       *ABS*	00000000 SCHED_SUPPORT_INTERRUPT
00000001 l       *ABS*	00000000 PSR_REG_STATUS_PIE
20025e38 l       .text	00000000 start_schedule_task
20025ed8 l       .text	00000000 dispatch1
20025ee8 l       .text	00000000 task_dispatch
20025fbc l       .text	00000000 dispatch_user_mode
20025ef8 l       .text	00000000 dispatch_irq_mode
20026030 l       .text	00000000 dispatch_common
00000000 l    df *ABS*	00000000 sco_scheduler_cpu.c
00000000 l    df *ABS*	00000000 sco_mail_box.c
200bac00 l     O .bss	00000018 g_mail_box
00000000 l    df *ABS*	00000000 ptp_app_gev.c
20026a7c l     F .text	00000098 ptp_gev_init
20026b14 l     F .text	0000005c ptp_gev_set_ts_counter
20026b70 l     F .text	00000058 ptp_gev_set_priority1
20026bc8 l     F .text	00000058 ptp_gev_set_priority2
20026c20 l     F .text	00000044 ptp_gev_set_domainNumber
20026c64 l     F .text	00000058 ptp_gev_set_slaveOnly
20026cbc l     F .text	00000044 ptp_gev_set_logAnnounceInterval
20026d00 l     F .text	00000044 ptp_gev_set_logSyncInterval
20026d44 l     F .text	00000044 ptp_gev_set_logMinDelayReqInterval
20026d88 l     F .text	00000044 ptp_gev_set_announceReceiptTimeout
20026dcc l     F .text	00000130 ptp_gev_get_state
20026efc l     F .text	00000144 ptp_gev_open
20027040 l     F .text	0000002c ptp_gev_close
2002706c l     F .text	0000002c ptp_gev_start
20027098 l     F .text	0000002c ptp_gev_stop
200270c4 l     F .text	000000dc ptp_err_to_gev_err
00000000 l    df *ABS*	00000000 ptp_net_gev.c
2009aa50 l     O .bss	00000006 g_hw_mac_addr
00000000 l    df *ABS*	00000000 ptp_sys_scorpius.c
2009aa58 l     O .bss	00000001 g_event_id
2009aa59 l     O .bss	00000001 g_sem_id
2009aa5c l     O .bss	00000004 g_gev_timer_id
2009aa60 l     O .bss	00000001 g_task_id
2009aa64 l     O .bss	00000004 gp_fnc_main_loop
2009aa68 l     O .bss	00000004 gp_sys
20027ad0 l     F .text	00000048 gev_timer_callback
00000000 l    df *ABS*	00000000 ptp_api.c
200286d0 l     F .text	00000078 set_dataset
20028748 l     F .text	0000006c get_dataset
00000000 l    df *ABS*	00000000 ptp_bmc.c
2009aa6c l     O .bss	00000004 gp_foreignMasterDS
2009aa70 l     O .bss	00000004 g_bmca_mode
2002b018 l     F .text	0000006c set_timer_announceInterval
2002b084 l     F .text	00000094 set_timer_announceReceiptTimeout
2002ae28 l     F .text	000001f0 change_portState
2002a810 l     F .text	000000c0 computation_of_Ebest
20029810 l     F .text	000004c8 maintain_foreignMasterDS
20029eec l     F .text	0000009c check_change_Ebest
2002a8d0 l     F .text	00000180 state_decision_algorithm
20029e6c l     F .text	00000080 is_same_key
2002a498 l     F .text	0000008c sync_master_foreignMasterDS
2002ab2c l     F .text	000002fc update_DS_for_slave
2002a2f8 l     F .text	000000e0 delete_foreignMasterDS
20029f88 l     F .text	000000e4 select_foreignMasterDS
20029cd8 l     F .text	00000194 is_same_announce
2002a244 l     F .text	000000b4 update_foreignMasterDS
2002a524 l     F .text	000002ec ds_comparison_algorithm
2002a3d8 l     F .text	000000c0 switch_foreignMasterDS
2002a06c l     F .text	000001d8 insert_foreignMasterDS
2002aa50 l     F .text	000000dc update_DS_for_master
00000000 l    df *ABS*	00000000 ptp_callback.c
2009aa74 l     O .bss	00000004 gp_fnc
200bac18 l     O .bss	000000c4 g_queue
2009a96c l     O .rwdata	00000004 gp_queue
00000000 l    df *ABS*	00000000 ptp_cycle.c
200496d0 l     O .rodata	00000060 g_handler_table
2009aa78 l     O .bss	00000004 gp_cycle
2002ba18 l     F .text	00000108 cycle_timer_start
2002bb20 l     F .text	0000008c cycle_timer_stop
00000000 l    df *ABS*	00000000 ptp_dataset.c
00000000 l    df *ABS*	00000000 ptp_main.c
2009aa94 l     O .bss	00000001 g_ptp_main_loop_active
2009aa98 l     O .bss	00000004 g_ptp_err
2009aa9c l     O .bss	00000004 gp_mem
2002d1f4 l     F .text	00000188 ptp_main_loop
2002d37c l     F .text	00000044 ptp_exit_main_loop
2002ce9c l     F .text	00000230 ptp_main_open
2002d0cc l     F .text	0000005c ptp_main_close
2002d128 l     F .text	00000098 ptp_main_start
2002d1c0 l     F .text	00000034 ptp_main_stop
00000000 l    df *ABS*	00000000 ptp_master.c
2002d7b4 l     F .text	00000050 set_timer_syncInterval
00000000 l    df *ABS*	00000000 ptp_message.c
200bacdc l     O .bss	0000000c g_sequenceId_snd
2002e668 l     F .text	0000045c create_header
2002eac4 l     F .text	00000118 create_Management
00000000 l    df *ABS*	00000000 ptp_misc.c
2009aaa0 l     O .bss	00000001 g_enable_print_analysis
2009aaa4 l     O .bss	00000004 gp_analysis_vprintf
2009aaa8 l     O .bss	00000004 g_main_loop_state
00000000 l    df *ABS*	00000000 ptp_mng.c
2009aaac l     O .bss	00000004 gp_mng
00000000 l    df *ABS*	00000000 ptp_pulse.c
2002fedc l     F .text	0000007c gen_align_calc
00000000 l    df *ABS*	00000000 ptp_rcv.c
20049730 l     O .rodata	00000078 g_handler_table
00000000 l    df *ABS*	00000000 ptp_servo.c
20030960 l     F .text	00000080 servo_get_init_parameter
20032334 l     F .text	0000013c update_curr_coef
20032470 l     F .text	00000268 change_internal_state
20032018 l     F .text	000001b8 decision_next_lock_stage
200326d8 l     F .text	0000006c div_for_coef
2003176c l     F .text	00000078 calc_calibration_offset
20031c9c l     F .text	0000037c decision_lock
200321d0 l     F .text	00000164 update_ptp_counter
20031104 l     F .text	00000150 pi_controll
200317e4 l     F .text	00000178 calc_filter_offset
20031254 l     F .text	000001b4 calc_base_coef_using_avg_coef
20031408 l     F .text	000001ec calc_base_coef_using_integral
200315f4 l     F .text	00000178 calc_apply_coef_using_proportional
2003195c l     F .text	00000250 calc_limit_coef
20031bac l     F .text	000000f0 set_holdover_coef_sample
20032744 l     F .text	00000190 exec_holdover
00000000 l    df *ABS*	00000000 ptp_slave.c
2009aab8 l     O .bss	00000004 gp_slave
200338dc l     F .text	00000050 set_timer_delayReqInterval
2003392c l     F .text	000000f8 calc_t2t1
20033a24 l     F .text	00000140 calc_offset_from_timestamp
20033868 l     F .text	00000074 set_slave_logMinDelayReqInterval
00000000 l    df *ABS*	00000000 ptp_calc.c
00000000 l    df *ABS*	00000000 ptp_header.c
00000000 l    df *ABS*	00000000 ptp_dev_gev.c
2009aabc l     O .bss	00000004 gp_dev
20036edc l     F .text	0000008c ptp_clock_irq_handler
20036b28 l     F .text	00000108 irq_handle_snd
20036c30 l     F .text	000002ac irq_handle_rcv
20036630 l     F .text	000001d0 mod_epoch
00000000 l    df *ABS*	00000000 ptp_default.c
00000000 l    df *ABS*	00000000 libgcc2.c
00000000 l    df *ABS*	00000000 libgcc2.c
00000000 l    df *ABS*	00000000 libgcc2.c
00000000 l    df *ABS*	00000000 libgcc2.c
00000000 l    df *ABS*	00000000 libgcc2.c
00000000 l    df *ABS*	00000000 lib2-divmod.c
00000000 l    df *ABS*	00000000 divsf3.c
00000000 l    df *ABS*	00000000 gesf2.c
00000000 l    df *ABS*	00000000 lesf2.c
00000000 l    df *ABS*	00000000 mulsf3.c
00000000 l    df *ABS*	00000000 subsf3.c
00000000 l    df *ABS*	00000000 fixsfsi.c
00000000 l    df *ABS*	00000000 floatunsisf.c
00000000 l    df *ABS*	00000000 adddf3.c
00000000 l    df *ABS*	00000000 divdf3.c
00000000 l    df *ABS*	00000000 muldf3.c
00000000 l    df *ABS*	00000000 floatunsidf.c
00000000 l    df *ABS*	00000000 truncdfsf2.c
00000000 l    df *ABS*	00000000 libgcc2.c
00000000 l    df *ABS*	00000000 libgcc2.c
00000000 l    df *ABS*	00000000 malloc.c
00000000 l    df *ABS*	00000000 mallocr.c
00000000 l    df *ABS*	00000000 memcmp.c
00000000 l    df *ABS*	00000000 memcpy.c
00000000 l    df *ABS*	00000000 memset.c
00000000 l    df *ABS*	00000000 printf.c
00000000 l    df *ABS*	00000000 puts.c
00000000 l    df *ABS*	00000000 rand.c
00000000 l    df *ABS*	00000000 sbrkr.c
00000000 l    df *ABS*	00000000 strlen.c
00000000 l    df *ABS*	00000000 vfprintf.c
20049942 l     O .rodata	00000010 zeroes.4404
2003d4f0 l     F .text	000000bc __sbprintf
20049952 l     O .rodata	00000010 blanks.4403
00000000 l    df *ABS*	00000000 wsetup.c
00000000 l    df *ABS*	00000000 dtoa.c
2003d700 l     F .text	00000200 quorem
00000000 l    df *ABS*	00000000 fflush.c
00000000 l    df *ABS*	00000000 findfp.c
2003f230 l     F .text	00000008 __fp_unlock
2003f244 l     F .text	0000019c __sinit.part.1
2003f3e0 l     F .text	00000008 __fp_lock
00000000 l    df *ABS*	00000000 mallocr.c
00000000 l    df *ABS*	00000000 fvwrite.c
00000000 l    df *ABS*	00000000 fwalk.c
00000000 l    df *ABS*	00000000 impure.c
200991e4 l     O .rwdata	00000424 impure_data
00000000 l    df *ABS*	00000000 int_errno.c
00000000 l    df *ABS*	00000000 locale.c
20099628 l     O .rwdata	00000020 lc_ctype_charset
20099608 l     O .rwdata	00000020 lc_message_charset
20099648 l     O .rwdata	00000038 lconv
00000000 l    df *ABS*	00000000 makebuf.c
00000000 l    df *ABS*	00000000 memchr.c
00000000 l    df *ABS*	00000000 memmove.c
00000000 l    df *ABS*	00000000 mprec.c
20049984 l     O .rodata	0000000c p05.2768
00000000 l    df *ABS*	00000000 mallocr.c
00000000 l    df *ABS*	00000000 s_fpclassify.c
00000000 l    df *ABS*	00000000 stdio.c
00000000 l    df *ABS*	00000000 strcmp.c
00000000 l    df *ABS*	00000000 vfprintf.c
20041d0c l     F .text	000000fc __sprint_r.part.0
20049ab8 l     O .rodata	00000010 blanks.4348
20049aa8 l     O .rodata	00000010 zeroes.4349
20043298 l     F .text	000000bc __sbprintf
00000000 l    df *ABS*	00000000 writer.c
00000000 l    df *ABS*	00000000 closer.c
00000000 l    df *ABS*	00000000 mallocr.c
00000000 l    df *ABS*	00000000 fclose.c
00000000 l    df *ABS*	00000000 fputwc.c
00000000 l    df *ABS*	00000000 fstatr.c
00000000 l    df *ABS*	00000000 isattyr.c
00000000 l    df *ABS*	00000000 lseekr.c
00000000 l    df *ABS*	00000000 readr.c
00000000 l    df *ABS*	00000000 wbuf.c
00000000 l    df *ABS*	00000000 wcrtomb.c
00000000 l    df *ABS*	00000000 wctomb_r.c
00000000 l    df *ABS*	00000000 libgcc2.c
00000000 l    df *ABS*	00000000 eqdf2.c
00000000 l    df *ABS*	00000000 gedf2.c
00000000 l    df *ABS*	00000000 ledf2.c
00000000 l    df *ABS*	00000000 subdf3.c
00000000 l    df *ABS*	00000000 fixdfsi.c
00000000 l    df *ABS*	00000000 floatsidf.c
00000000 l    df *ABS*	00000000 alt_close.c
20044e70 l     F .text	0000003c alt_get_errno
00000000 l    df *ABS*	00000000 alt_dev.c
20044f7c l     F .text	0000002c alt_dev_null_write
00000000 l    df *ABS*	00000000 alt_errno.c
00000000 l    df *ABS*	00000000 alt_flash_dev.c
00000000 l    df *ABS*	00000000 alt_fstat.c
20045064 l     F .text	0000003c alt_get_errno
00000000 l    df *ABS*	00000000 alt_iic.c
00000000 l    df *ABS*	00000000 alt_iic_isr_register.c
00000000 l    df *ABS*	00000000 alt_irq_vars.c
00000000 l    df *ABS*	00000000 alt_isatty.c
200453f0 l     F .text	0000003c alt_get_errno
00000000 l    df *ABS*	00000000 alt_lseek.c
200454d0 l     F .text	0000003c alt_get_errno
00000000 l    df *ABS*	00000000 alt_main.c
00000000 l    df *ABS*	00000000 alt_malloc_lock.c
00000000 l    df *ABS*	00000000 alt_read.c
200456a4 l     F .text	0000003c alt_get_errno
00000000 l    df *ABS*	00000000 alt_release_fd.c
00000000 l    df *ABS*	00000000 alt_sbrk.c
2009a9a8 l     O .rwdata	00000004 heap_end
00000000 l    df *ABS*	00000000 alt_usleep.c
00000000 l    df *ABS*	00000000 alt_write.c
20045920 l     F .text	0000003c alt_get_errno
00000000 l    df *ABS*	00000000 alt_sys_init.c
20045a54 l     F .text	00000034 alt_dev_reg
20099828 l     O .rwdata	00001060 jtag_uart
2009a888 l     O .rwdata	000000dc sf_ctr
00000000 l    df *ABS*	00000000 altera_avalon_jtag_uart_fd.c
00000000 l    df *ABS*	00000000 altera_avalon_jtag_uart_init.c
20045d54 l     F .text	0000020c altera_avalon_jtag_uart_irq
20045f60 l     F .text	000000a0 altera_avalon_jtag_uart_timeout
00000000 l    df *ABS*	00000000 altera_avalon_jtag_uart_ioctl.c
00000000 l    df *ABS*	00000000 altera_avalon_jtag_uart_read.c
00000000 l    df *ABS*	00000000 altera_avalon_jtag_uart_write.c
00000000 l    df *ABS*	00000000 altera_avalon_timer_sc.c
20046598 l     F .text	00000078 alt_avalon_timer_sc_irq
00000000 l    df *ABS*	00000000 altera_epcq_controller.c
2004668c l     F .text	00000034 alt_flash_device_register
20047108 l     F .text	00000088 alt_epcq_poll_for_write_in_progress
2004706c l     F .text	0000009c alt_epcq_validate_read_write_arguments
00000000 l    df *ABS*	00000000 alt_alarm_start.c
00000000 l    df *ABS*	00000000 alt_busy_sleep.c
00000000 l    df *ABS*	00000000 alt_dev_llist_insert.c
20047414 l     F .text	0000003c alt_get_errno
00000000 l    df *ABS*	00000000 alt_do_ctors.c
00000000 l    df *ABS*	00000000 alt_do_dtors.c
00000000 l    df *ABS*	00000000 alt_find_dev.c
00000000 l    df *ABS*	00000000 alt_io_redirect.c
200476e0 l     F .text	000000c4 alt_open_fd
00000000 l    df *ABS*	00000000 alt_open.c
20047820 l     F .text	0000003c alt_get_errno
2004785c l     F .text	000000c4 alt_file_locked
00000000 l    df *ABS*	00000000 alt_tick.c
00000000 l    df *ABS*	00000000 altera_nios2_gen2_irq.c
00000000 l    df *ABS*	00000000 alt_find_file.c
00000000 l    df *ABS*	00000000 alt_get_fd.c
00000000 l    df *ABS*	00000000 atexit.c
00000000 l    df *ABS*	00000000 exit.c
00000000 l    df *ABS*	00000000 __atexit.c
00000000 l    df *ABS*	00000000 __call_atexit.c
00000000 l    df *ABS*	00000000 alt_exit.c
2009aaf0 g     O .bss	00000004 alt_instruction_exception_handler
2001d5b0 g     F .text	0000004c read_macspire_time_cap_drop_csr_ip_reg
2009a964 g     O .rwdata	00000004 g_test_version
2002fbd4 g     F .text	0000013c ptp_pulse_set_freq
20004f74 g     F .text	0000009c gev_ptp_set_slave_only
200305fc g     F .text	00000364 ptp_servo_get_parameter
200271a0 g     F .text	00000058 ptp_net_gev_init
200413a4 g     F .text	00000074 _mprec_log10
2002f8e8 g     F .text	0000002c ptp_pulse_open
20028c74 g     F .text	00000050 ptp_bmc_open
20041490 g     F .text	0000008c __any_on
20043834 g     F .text	00000054 _isatty_r
200272a8 g     F .text	0000005c ptp_net_get_mac_addr
20049990 g     O .rodata	00000028 __mprec_tinytens
20037054 g     F .text	00000034 ptp_set_param_profile
200455e0 g     F .text	0000007c alt_main
2003b0a0 g     F .text	000000c0 _puts_r
200e1b30 g     O .bss	00000100 alt_irq
20027a64 g     F .text	00000038 ptp_sys_malloc
20034cac g     F .text	000001b0 ptp_calc_cmp
20043888 g     F .text	00000060 _lseek_r
2001d564 g     F .text	0000004c read_macspire_gev_ip_reg
20028eb8 g     F .text	00000024 ptp_get_clockClass
20027ce0 g     F .text	00000060 libptp_set_logAnnounceInterval
200bad98 g     O .bss	000012c8 g_receive_packet_queue
2002f5c4 g     F .text	0000002c ptp_set_print_analysis_fnc
2002ce58 g     F .text	00000044 ptp_stop
200441c0 g     F .text	00000088 .hidden __eqdf2
20025e64 g       .text	00000000 _exit_interrupt
2003649c g     F .text	00000040 ptp_dev_set_lock_status
20025e10 g       .text	00000000 _enable_interrupt
20036214 g     F .text	000000dc ptp_dev_gev_get_snd_timestamp
20035e48 g     F .text	000002d4 ptp_dev_start
200e1c30 g       *ABS*	00000000 __alt_heap_start
20025df8 g       .text	00000000 _cpu_unlock
2003b064 g     F .text	0000003c printf
200099e8 g     F .text	00000164 gev_set_bs_mnft_info
200287b4 g     F .text	00000068 libptp_set_epoch
200bc060 g     O .bss	00000258 g_packet_send_igmp
20043aa0 g     F .text	0000009c _wcrtomb_r
2000b1ac g     F .text	000001f8 gev_add_bs_reg_mem
2000be44 g     F .text	000000bc gev_reg_bs_reg_pixel_fromat_write_func
20009884 g     F .text	00000164 gev_set_bs_dev_ver
20041bcc g     F .text	0000005c __sseek
2003f580 g     F .text	00000010 __sinit
2000cc90 g     F .text	000000cc gev_set_multicast_ip
20043948 g     F .text	00000140 __swbuf_r
20032c40 g     F .text	00000034 ptp_slave_set_unicast_delay_req
2001e35c g     F .text	00000084 igmp_join
2000bf00 g     F .text	000000bc gev_reg_bs_reg_field_count_write_func
2001d5fc g     F .text	0000004c read_macspire_ptp_clock_ip_reg
20040048 g     F .text	0000007c _setlocale_r
2003f3e8 g     F .text	00000068 __sfmoreglue
20045680 g     F .text	00000024 __malloc_unlock
2009aa3c g     O .bss	00000004 g_send_packet_queue_empty
2000a3b8 g     F .text	0000010c gev_set_bs_msg_ch_src_port
20026964 g     F .text	00000118 libptp_task
200379b0 g     F .text	00000440 .hidden __divsf3
200bc2b8 g     O .bss	00000258 g_packet_gvsp
2002d40c g     F .text	0000006c ptp_set_step_mode
2002fdbc g     F .text	00000120 ptp_pulse_set_profile_specific_gen
2002f6fc g     F .text	0000002c ptp_mng_open
2002b180 g     F .text	0000002c ptp_callback_set_fnc
20027704 g     F .text	0000004c ptp_sys_scorpius_init
2001e3e0 g     F .text	0000008c igmp_leave
2000659c g     F .text	000000f0 get_receive_packet
20007df4 g     F .text	00000324 gev_send_evtdt_cmd
20028258 g     F .text	00000084 libptp_get_slave_correctionField
2001d784 g     F .text	00000050 write_macspire_eth_tse_ip_reg
200403c4 g     F .text	0000015c memmove
2002808c g     F .text	0000005c libptp_get_logAnnounceInterval
20030abc g     F .text	00000024 ptp_servo_close
20004cac g     F .text	0000003c gev_ptp_stop
20024d0c g     F .text	00000234 start_scheduler
2003014c g     F .text	00000058 ptp_servo_enable_avg_coef
2003f568 g     F .text	00000018 _cleanup
2001fef8 g     F .text	0000007c channel_timer_hw_start
2000a6dc g     F .text	000003b0 gev_set_flash_param
20004da0 g     F .text	0000009c gev_ptp_set_priority1
2006fa44 g     O .rwdata	0000004b g_second_url_v20
20040520 g     F .text	000000a8 _Balloc
200d6608 g     O .bss	00001000 stack5
20038854 g     F .text	00000070 .hidden __fixsfsi
20028c28 g     F .text	0000004c libptp_dbg_print_foreignMasterDS
2002ebdc g     F .text	00000044 ptp_check_enable_state
20033778 g     F .text	00000024 ptp_slave_get_logMinDelayReqInterval
2001d694 g     F .text	00000050 write_macspire_gev_ip_reg
20032c74 g     F .text	00000024 ptp_slave_get_unicast_delay_req
2002ff58 g     F .text	00000198 ptp_rcv_handler
20044248 g     F .text	000000dc .hidden __gtdf2
20047c18 g     F .text	00000024 altera_nios2_gen2_irq_init
2000cd5c g     F .text	000000a8 gev_set_multicast_ttl
20024968 g     F .text	00000178 set_event_flag
00600000 g     F .entry	00000000 __reset
2009a9b5 g     O .bss	00000001 g_accept_broadcast_writereg
20027e60 g     F .text	0000005c libptp_set_unicast_delay_req
20033824 g     F .text	00000044 ptp_slave_get_cf_drsp
20006a60 g     F .text	0000052c gev_open
2002b7f0 g     F .text	00000110 ptp_cycle_set_interval_ms
200d7608 g     O .bss	00001000 stack1
200437d8 g     F .text	0000005c _fstat_r
20005010 g     F .text	0000009c gev_ptp_set_log_announce_interval
20036f94 g     F .text	00000024 ptp_profile_close
2009aad0 g     O .bss	00000004 errno
20041b48 g     F .text	00000008 __seofread
20028fdc g     F .text	000000b8 ptp_set_domainNumber
200bc510 g     O .bss	000000b0 g_timer_table
2002d804 g     F .text	0000004c ptp_message_get_sequenceId
2000b920 g     F .text	000000bc gev_reg_bs_reg_ofstx_write_func
2006fa10 g     O .rwdata	00000034 g_first_url_v20
20032bdc g     F .text	00000040 ptp_slave_open
2003528c g     F .text	00000044 ptp_calc_is_negative
2009aae8 g     O .bss	00000004 alt_argv
20029094 g     F .text	000000a0 ptp_set_priority1
200a2964 g       *ABS*	00000000 _gp
200458f0 g     F .text	00000030 usleep
2009a9b8 g     O .bss	00000008 g_ptp_param
20027b18 g     F .text	00000024 libptp_get_version
20038370 g     F .text	000004e4 .hidden __subsf3
20025930 g     F .text	000001a0 refer_semaphore
20029790 g     F .text	00000080 ptp_bmc_cycle_send_Announce
20049b08 g     O .rwdata	00000034 g_first_url_v12
20029274 g     F .text	00000060 ptp_set_logAnnounceInterval
20020130 g     F .text	000000ec timer_event_ack_register
20004ed8 g     F .text	0000009c gev_ptp_set_domain_number
20028fbc g     F .text	00000020 ptp_get_bmca_mode
200291d4 g     F .text	000000a0 ptp_set_slaveOnly
2001f1a8 g     F .text	0000004c big_little_transform_16bit
2001f9cc g     F .text	0000011c timer_channel_register
200996a8 g     O .rwdata	00000180 alt_fd_list
2009aa90 g     O .bss	00000004 gp_origDS
20021c5c g     F .text	00000088 copy_to_bootstrap_reg
2001f0c8 g     F .text	0000006c set_ip_counter
20016fbc g     F .text	00000080 ref_top_sac_queue
20049b3c g     O .rwdata	0000004b g_second_url_v12
2000ce04 g     F .text	000000d8 gev_set_bs_action_signals_num
200475b4 g     F .text	00000090 alt_find_dev
20027328 g     F .text	0000010c ptp_net_snd_event_message
2003adc4 g     F .text	00000148 memcpy
2009a9c0 g     O .bss	00000001 g_link_status
2002df10 g     F .text	00000094 ptp_message_get_body_Delay_Resp
20034240 g     F .text	000009b8 ptp_calc_div
200368d0 g     F .text	00000158 ptp_dev_set_pulse_gen
2000ec14 g     F .text	0000095c make_eventdata_command_packet
2003f238 g     F .text	0000000c _cleanup_r
20027228 g     F .text	00000034 ptp_net_start
20044d94 g     F .text	000000dc .hidden __floatsidf
200477a4 g     F .text	0000007c alt_io_redirect
200d8608 g     O .bss	00001000 stack10
20044324 g     F .text	000000f4 .hidden __ltdf2
20032c1c g     F .text	00000024 ptp_slave_close
20048100 g       *ABS*	00000000 __DTOR_END__
20009e2c g     F .text	00000164 gev_set_bs_scnd_url
20034c50 g     F .text	0000005c ptp_calc_is_zero
2000c138 g     F .text	0000002c gev_get_timer_task_id
2001fe40 g     F .text	000000b8 timer_channel_check
2003b160 g     F .text	00000014 puts
20047644 g     F .text	0000009c alt_exception_cause_generated_bad_addr
200364dc g     F .text	000000b8 ptp_dev_set_coef
20034e5c g     F .text	00000218 ptp_calc_logical_shift_right
2003618c g     F .text	00000040 ptp_dev_enable_timestamp
20025288 g     F .text	00000068 get_task_id
20030cd0 g     F .text	000002e8 ptp_servo_set_t1_t2
20036a50 g     F .text	00000028 ptp_dev_filter_master_mode
20025de0 g       .text	00000000 _cpu_lock
20041a80 g     F .text	00000074 __fpclassifyd
20041300 g     F .text	000000a4 __ratio
20035dcc g     F .text	0000007c ptp_header_get_sequenceId
20025ecc g       .text	00000000 _dispatch
2004327c g     F .text	0000001c __vfiprintf_internal
20027b3c g     F .text	00000054 libptp_set_print_analysis_fnc
20036430 g     F .text	0000006c ptp_dev_gev_clear_rcv_timestamp_buffer
20017c44 g     F .text	0000087c gvsp_packetresend_v1x
20046158 g     F .text	0000021c altera_avalon_jtag_uart_read
2000e1e0 g     F .text	0000013c gev_engine_send_event_command
2003a514 g     F .text	00000014 malloc
2003b034 g     F .text	00000030 _printf_r
200378f4 g     F .text	00000064 .hidden __udivsi3
2004542c g     F .text	000000a4 isatty
20004bf8 g     F .text	0000003c gev_ptp_open
2009aa44 g     O .bss	00000004 gp_top_priority_task
2000bc10 g     F .text	000000bc gev_reg_bs_reg_acquisition_stop_func
200499e0 g     O .rodata	000000c8 __mprec_tens
20005148 g     F .text	0000009c gev_ptp_set_log_min_delay_req_interval
200400c4 g     F .text	0000000c __locale_charset
2000a088 g     F .text	00000120 gev_set_bs_gvsp_cap
2000bd88 g     F .text	000000bc gev_reg_bs_reg_acquisition_frame_count_write_func
20037eac g     F .text	000000c8 .hidden __lesf2
20005280 g     F .text	000000f0 gev_set_func_for_ptp
2001d734 g     F .text	00000050 write_macspire_ptp_clock_ip_reg
200224dc g     F .text	000001c0 process_dhcp
2002f378 g     F .text	000001e4 ptp_conv_Timestamp_to_array
2000e31c g     F .text	000008f8 make_event_command_packet
20030ae0 g     F .text	00000030 ptp_servo_get_state
2009aacc g     O .bss	00000004 __malloc_top_pad
20034bf8 g     F .text	00000058 ptp_calc_div_by_uint32
2002b3d0 g     F .text	00000024 ptp_cycle_close
2009a980 g     O .rwdata	00000004 __mb_cur_max
200400f4 g     F .text	0000000c _localeconv_r
20035d74 g     F .text	00000058 ptp_header_get_messageType
2004092c g     F .text	0000003c __i2b
2003fa04 g     F .text	000004bc __sfvwrite_r
200330c0 g     F .text	000002f0 ptp_slave_rcv_Follow_Up
20027b90 g     F .text	0000003c libptp_enable_print_analysis
20028030 g     F .text	0000005c libptp_get_domainNumber
2003b1f0 g     F .text	00000054 _sbrk_r
2009aa7c g     O .bss	00000004 gp_defaultDS
200bc5c0 g     O .bss	00000258 g_net_packet_send
2002d52c g     F .text	00000050 ptp_master_set_logMinDelayReqInterval
20018e90 g     F .text	000003b8 gvsp_transfer_stop
2002881c g     F .text	00000058 libptp_add_epoch
20028874 g     F .text	00000058 libptp_sub_epoch
20009428 g     F .text	00000194 gev_set_bs_ntwk_if_cap
200288cc g     F .text	000000f8 libptp_set_dataset_multi
2001ffa4 g     F .text	000000a0 timer_event_ack_get_id
200438e8 g     F .text	00000060 _read_r
2000bccc g     F .text	000000bc gev_reg_bs_reg_acquisition_mode_write_func
2000c688 g     F .text	000000d8 gev_set_bs_timestamp_tick_high
2009a998 g     O .rwdata	00000004 alt_max_fd
20021ce4 g     F .text	00000088 copy_from_bootstrap_reg
200362f0 g     F .text	00000140 ptp_dev_gev_get_rcv_timestamp
200434cc g     F .text	000000f0 _fclose_r
20005418 g     F .text	0000007c gev_net_pkt_task
2000bb54 g     F .text	000000bc gev_reg_bs_reg_acquisition_start_func
20008818 g     F .text	000001d4 gev_update_chunk_data
2003f200 g     F .text	00000030 fflush
2009aac8 g     O .bss	00000004 __malloc_max_sbrked_mem
200300f0 g     F .text	0000005c ptp_servo_enable_ki_coef
2002ec20 g     F .text	000000dc ptp_cmp_PortIdentity
20032c98 g     F .text	0000008c ptp_slave_change_portState
20019248 g     F .text	000002ec set_chunk_data
2000b0e0 g     F .text	000000cc gev_read_bs_reg
200bc818 g     O .bss	00000258 g_packet_send_arp
200bca70 g     O .bss	000012c8 g_receive_net_packet_queue
200389b4 g     F .text	000008ac .hidden __adddf3
2002bbac g     F .text	0000048c ptp_dataset_open
20027888 g     F .text	00000038 ptp_sys_get_sem_app
200410a8 g     F .text	0000010c __b2d
20043c88 g     F .text	00000538 .hidden __umoddi3
2004550c g     F .text	000000d4 lseek
2002856c g     F .text	00000058 libptp_set_tuning_param
2002b900 g     F .text	00000118 ptp_cycle_change_portState
2009a978 g     O .rwdata	00000004 _global_impure_ptr
200356bc g     F .text	000000b0 ptp_calc_conv_from_TimeInterval
200bdd38 g     O .bss	00000258 g_packet_stream_channel_arp
2004151c g     F .text	00000564 _realloc_r
30000000 g       *ABS*	00000000 __alt_exception_stack_pointer
20021c10 g     F .text	0000004c read_bootstrap_reg
2000c8dc g     F .text	000000bc gev_reg_ipconf_done_func
200e1c30 g       *ABS*	00000000 __bss_end
20045300 g     F .text	000000f0 alt_iic_isr_register
20047b10 g     F .text	00000108 alt_tick
20005494 g     F .text	00000328 gev_sch_act_task
2001de10 g     F .text	000002c0 send_ptp_packet
20037284 g     F .text	00000578 .hidden __udivdi3
20043734 g     F .text	00000024 _fputwc_r
200499b8 g     O .rodata	00000028 __mprec_bigtens
2002e550 g     F .text	00000094 ptp_message_create_Management
20040710 g     F .text	00000104 __s2b
200282dc g     F .text	00000054 libptp_get_epoch
2001fc08 g     F .text	00000064 timer_channel_unregister
2003a260 g     F .text	000000a8 .hidden __floatunsidf
2006fa90 g     O .rwdata	0002934c g_xml_file_v20_p1
20040de8 g     F .text	00000060 __mcmp
20019534 g     F .text	000004cc send_test_packet
2003f5a0 g     F .text	00000018 __fp_lock_all
200452b4 g     F .text	0000004c alt_ic_irq_enabled
2002638c g     F .text	000001b4 receive_mail_box
2000d414 g     F .text	000000fc gev_set_local_time
20001bac g     F .text	00000024 user_task_2
20047a74 g     F .text	0000009c alt_alarm_stop
20036aa0 g     F .text	00000030 ptp_dev_filter_domainNumber
2009aae0 g     O .bss	00000004 alt_irq_active
20025e2c g       .text	00000000 _start_scheduler
200bdf90 g     O .bss	00000258 g_packet_receive
04018000 g       *ABS*	00000000 __alt_mem_onchip_mem
04018108 g     F .exceptions	000000d4 alt_irq_handler
20026540 g     F .text	00000130 poll_mail_box
20099680 g     O .rwdata	00000028 alt_dev_null
200092e0 g     F .text	00000148 gev_set_bs_dev_mode
20028d1c g     F .text	00000034 ptp_bmc_stop
20027434 g     F .text	00000064 ptp_net_snd_general_message
2001fc6c g     F .text	00000094 timer_channel_start
20033ce0 g     F .text	0000011c ptp_calc_sub
2001fd00 g     F .text	00000090 timer_channel_stop
2003379c g     F .text	00000044 ptp_slave_get_cf_sync
2004685c g     F .text	00000120 alt_epcq_controller_erase_block
2000d260 g     F .text	000001b4 gev_ptp_init_func
2001ff74 g     F .text	00000030 channel_timer_hw_stop
2001d294 g     F .text	00000148 send_packet_request
2002f02c g     F .text	00000140 ptp_conv_clockid_to_array
2002d5dc g     F .text	000000dc ptp_master_rcv_Delay_Req
20040814 g     F .text	00000068 __hi0bits
2002e258 g     F .text	00000104 ptp_message_create_Delay_Resp
20044d14 g     F .text	00000080 .hidden __fixdfsi
2003702c g     F .text	00000028 ptp_profile_disable_pulse
2002e1b8 g     F .text	000000a0 ptp_message_create_Delay_Req
2001e9fc g     F .text	00000338 process_arp
2009aa88 g     O .bss	00000004 gp_timePropertiesDS
20036a78 g     F .text	00000028 ptp_dev_set_step_mode
200202b0 g     F .text	00000090 timer_event_ack_stop
200be1e8 g     O .bss	000012c8 g_receive_ptp_packet_queue
2009a990 g     O .rwdata	00000008 alt_dev_list
200252f0 g     F .text	000000ac get_task_id_in_entry
2004595c g     F .text	000000f8 write
2000d6dc g     F .text	0000008c gev_mcda_scda_check_process
200bf4b0 g     O .bss	00000060 g_timer_event_ack_table
200d9608 g     O .bss	00001000 stack8
20049638 g     O .rodata	00000084 g_table_task_entry
20037df0 g     F .text	000000bc .hidden __gtsf2
2000786c g     F .text	000001b0 gev_stop
200450a0 g     F .text	000000b0 fstat
20009b4c g     F .text	0000017c gev_set_bs_seri_num
2002dd2c g     F .text	00000164 ptp_message_get_body_Announce
2000cb70 g     F .text	00000090 gev_get_scheduled_action_time_high
20044324 g     F .text	000000f4 .hidden __ledf2
2009aa8c g     O .bss	00000004 gp_portDS
2002b4b0 g     F .text	00000124 ptp_cycle_callback
20036f68 g     F .text	0000002c ptp_profile_open
2002de90 g     F .text	00000040 ptp_message_get_body_Sync
20040b60 g     F .text	00000140 __pow5mult
20041e20 g     F .text	0000145c ___vfiprintf_internal_r
2009aadc g     O .bss	00000004 __nlocale_changed
20037958 g     F .text	00000058 .hidden __umodsi3
2002f55c g     F .text	00000068 ptp_print_analysis
2000ad0c g     F .text	000001dc gev_add_bs_reg
20037088 g     F .text	00000030 ptp_get_param_profile
200da608 g     O .bss	00001000 stack6
20025bfc g     F .text	000000c0 sleep_task
2002b324 g     F .text	000000ac ptp_cycle_open
2003611c g     F .text	00000070 ptp_dev_stop
20033b64 g     F .text	00000124 ptp_calc_add
20012158 g     F .text	000028b0 write_bootstrap_reg_with_pre_past_process
200e1c30 g       *ABS*	00000000 end
200289c4 g     F .text	00000050 libptp_set_dataset
200db608 g     O .bss	00001000 stack11
2002d478 g     F .text	00000038 ptp_get_step_mode
20028edc g     F .text	000000e0 ptp_set_bmca_mode
2002cd7c g     F .text	00000050 ptp_open
200337e0 g     F .text	00000044 ptp_slave_get_cf_fup
20027750 g     F .text	000000a8 ptp_sys_start
200dc608 g     O .bss	00001000 stack4
2000b7a8 g     F .text	000000bc gev_reg_bs_reg_width_write_func
20045c94 g     F .text	000000c0 altera_avalon_jtag_uart_init
20025e54 g       .text	00000000 _enter_interrupt
200352d0 g     F .text	000000f0 ptp_calc_twos_complement
200bf510 g     O .bss	00000258 g_packet_message_channel_arp
040181dc g     F .exceptions	00000074 alt_instruction_exception_entry
200bf768 g     O .bss	00000258 g_packet_test
20048100 g       *ABS*	00000000 __CTOR_LIST__
2ffffc00 g       *ABS*	00000000 __alt_stack_pointer
2002f640 g     F .text	0000002c ptp_set_main_loop_state
200dd608 g     O .bss	00001000 stack2
2002b5d4 g     F .text	000000a8 ptp_cycle_timer_enable
20046610 g     F .text	0000007c alt_avalon_timer_sc_init
2003a4b0 g     F .text	00000064 .hidden __clzsi2
20028330 g     F .text	0000005c libptp_open
20046374 g     F .text	00000224 altera_avalon_jtag_uart_write
2000d880 g     F .text	0000008c gev_accept_lla_false_access
20027304 g     F .text	00000024 ptp_net_get_ip_addr
20024874 g     F .text	000000f4 poll_event_flag
2003f590 g     F .text	00000004 __sfp_lock_acquire
200402e0 g     F .text	000000e4 memchr
20046b88 g     F .text	000001e8 alt_epcq_controller_write
200283e4 g     F .text	00000060 libptp_start
2000d0a4 g     F .text	000001bc gev_set_ptp_init_val
2003b2dc g     F .text	000021f8 ___vfprintf_internal_r
2003f6f4 g     F .text	00000310 _free_r
20021d6c g     F .text	00000100 copy_to_bootstrap_reg_big_little
20004bb8 g     F .text	00000040 gev_ptp_get_state
200400d0 g     F .text	00000010 __locale_mb_cur_max
20007044 g     F .text	0000014c gev_close
20047f4c g     F .text	00000180 __call_exitprocs
200285c4 g     F .text	00000054 libptp_get_tuning_param
2002cdcc g     F .text	00000048 ptp_close
2009aad8 g     O .bss	00000004 __mlocale_changed
2002f66c g     F .text	00000090 ptp_mng_set_handler_extension_table
2009a970 g     O .rwdata	00000004 __malloc_sbrk_base
20000000 g     F .text	00000048 _start
20046d70 g     F .text	000000ac alt_epcq_controller_read
2009aaf4 g     O .bss	00000004 _alt_tick_rate
20027a1c g     F .text	00000048 ptp_sys_clear_event
200279d4 g     F .text	00000048 ptp_sys_set_event
2009aac0 g     O .bss	00000004 gp_profile
2001fd90 g     F .text	000000b0 timer_channel_restart
2009a9b4 g     O .bss	00000001 g_gvsp_active
200295d0 g     F .text	000001c0 ptp_bmc_cycle_announce_receipt_timeout
20037214 g     F .text	00000070 .hidden __floatundidf
2002ede0 g     F .text	0000024c ptp_conv_clockid_from_array
2003b18c g     F .text	00000064 rand
2000d90c g     F .text	00000288 process_gvcp
20007190 g     F .text	000006dc gev_run
20040ca0 g     F .text	00000148 __lshift
2002727c g     F .text	0000002c ptp_net_clear_timestamp_buffer
2009aaf8 g     O .bss	00000004 _alt_nticks
200456e0 g     F .text	000000fc read
20045ac0 g     F .text	00000070 alt_sys_init
20019b34 g     F .text	00000020 get_gvsp_v2_header_size
2001c6b8 g     F .text	00000078 stop_gige_vision_ip
2002d6b8 g     F .text	000000fc ptp_master_cycle_send_Sync
20047e34 g     F .text	00000118 __register_exitproc
2002e35c g     F .text	000001f4 ptp_message_create_Announce
20035ad4 g     F .text	000002a0 ptp_header_get_sourcePortIdentity
20026318 g     F .text	00000074 initial_mail_box
200281a0 g     F .text	0000005c libptp_get_logMinDelayReqInterval
20009214 g     F .text	000000cc check_payload_type
2000aee8 g     F .text	000001f8 gev_add_bs_reg_rng
2000d658 g     F .text	00000084 gev_set_scpd
2001c3f0 g     F .text	00000074 trigger_output_start
20040968 g     F .text	000001f8 __multiply
20046000 g     F .text	00000068 altera_avalon_jtag_uart_close
200bace8 g     O .bss	00000028 __malloc_current_mallinfo
2002539c g     F .text	0000004c disable_interrupt
200411b4 g     F .text	0000014c __d2b
2002e114 g     F .text	000000a4 ptp_message_create_Follow_Up
2003548c g     F .text	00000098 ptp_calc_conv_to_uint32
2002725c g     F .text	00000020 ptp_net_stop
2002b1ac g     F .text	000000c0 ptp_callback_execute
20036fb8 g     F .text	00000074 ptp_profile_get_profile_identifier
200bf9c0 g     O .bss	00000258 g_packet_send_dhcp
2001f468 g     F .text	0000001c gev_timer_task
20029334 g     F .text	0000021c ptp_bmc_rcv_Announce
200bfc18 g     O .bss	00000258 g_ptp_packet_send
20036afc g     F .text	0000002c ptp_dev_filter_own_portIdentity_for_dreq
2001f134 g     F .text	00000074 big_little_transform_32bit
20045b30 g     F .text	00000060 altera_avalon_jtag_uart_read_fd
20047d44 g     F .text	000000a4 alt_get_fd
200bfe70 g     O .bss	00000258 g_packetresend_receive
2002dfa4 g     F .text	000000b4 ptp_message_get_body_Management
200472bc g     F .text	00000158 alt_busy_sleep
2002e5e4 g     F .text	00000084 ptp_message_create_Management_response
2001d648 g     F .text	0000004c read_macspire_eth_tse_ip_reg
2000c760 g     F .text	000000dc gev_set_bs_timestamp_tick_low
20000060 g     F .text	00000074 idle_task
200433b4 g     F .text	00000054 _close_r
20028508 g     F .text	00000064 libptp_enable_avg_coef
20032d24 g     F .text	0000039c ptp_slave_rcv_Sync
20035884 g     F .text	00000120 ptp_calc_conv_from_Timestamp
2001f1f4 g     F .text	00000060 big_little_transform_24bit
2001fae8 g     F .text	00000120 timer_channel_register_for_interval
2002f74c g     F .text	0000019c ptp_mng_rcv_Management
2003ad48 g     F .text	0000007c memcmp
20045bf0 g     F .text	00000050 altera_avalon_jtag_uart_close_fd
2000859c g     F .text	0000027c gev_set_debug_mode
200e1c30 g       *ABS*	00000000 __alt_stack_base
20045c40 g     F .text	00000054 altera_avalon_jtag_uart_ioctl_fd
20024ae0 g     F .text	000000b0 clear_event_flag
20037178 g     F .text	0000009c .hidden __floatundisf
20049b88 g     O .rwdata	00025e85 g_xml_file_v12_p1
200361cc g     F .text	00000048 ptp_dev_disable_timestamp
2000d004 g     F .text	000000a0 gev_set_avm_clk_freq
2003d5ac g     F .text	00000154 __swsetup_r
20039260 g     F .text	000008e8 .hidden __divdf3
2003f450 g     F .text	00000118 __sfp
20025030 g     F .text	00000258 add_task_to_chain
20041418 g     F .text	00000078 __copybits
200c00c8 g     O .bss	0000c000 BOOT_STRAP_REGISTOR_BASE
20004ce8 g     F .text	000000b8 gev_ptp_set_master_time
20098ddc g     O .rwdata	00000408 __malloc_av_
200365fc g     F .text	00000034 ptp_dev_sub_epoch
2003f59c g     F .text	00000004 __sinit_lock_release
20009720 g     F .text	00000164 gev_set_bs_model_name
20039b48 g     F .text	00000718 .hidden __muldf3
20009cc8 g     F .text	00000164 gev_set_bs_fst_url
20041af4 g     F .text	00000054 __sread
20047c3c g     F .text	00000108 alt_find_file
20047450 g     F .text	000000a4 alt_dev_llist_insert
2004565c g     F .text	00000024 __malloc_lock
20045840 g     F .text	000000b0 sbrk
20027d40 g     F .text	00000060 libptp_set_announceReceiptTimeout
2003f1a4 g     F .text	0000005c _fflush_r
20043408 g     F .text	000000c4 _calloc_r
2009a9a0 g     O .rwdata	00000008 alt_flash_dev_list
20028144 g     F .text	0000005c libptp_get_logSyncInterval
2000b864 g     F .text	000000bc gev_reg_bs_reg_height_write_func
2002c038 g     F .text	00000034 ptp_dataset_close
2002d57c g     F .text	00000060 ptp_master_change_portState
2002d850 g     F .text	000004dc ptp_message_check_and_get_header
20027f70 g     F .text	0000005c libptp_get_servo_state
2002f16c g     F .text	0000020c ptp_conv_Timestamp_from_array
2009a9b4 g       *ABS*	00000000 __bss_start
2009a9c4 g     O .bss	00000008 g_set_time
200353c0 g     F .text	000000cc ptp_calc_conv_from_uint32
2003af0c g     F .text	00000128 memset
20000048 g     F .text	00000018 main
20028d50 g     F .text	00000168 ptp_bmc_get_master_info
2002c55c g     F .text	00000820 ptp_get_dataset
20033e54 g     F .text	000003ec ptp_calc_mul_by_uint32
2009aaec g     O .bss	00000004 alt_envp
2000b3a4 g     F .text	00000404 check_bs_reg_addr
2009aac4 g     O .bss	00000004 __malloc_max_total_mem
20007a1c g     F .text	00000144 gev_reg_act_func
200284a4 g     F .text	00000064 libptp_enable_ki_coef
20045b90 g     F .text	00000060 altera_avalon_jtag_uart_write_fd
20043a88 g     F .text	00000018 __swbuf
2003b174 g     F .text	00000018 srand
200cc0c8 g     O .bss	00003000 g_bootstrap_manage_table
20037eac g     F .text	000000c8 .hidden __ltsf2
2001d7d4 g     F .text	00000120 copy_data_to_macspire_32bit
20028ab4 g     F .text	0000005c libptp_get_bmca_mode
2001c550 g     F .text	00000168 init_gige_vision_ip
20041c28 g     F .text	00000008 __sclose
00000000 g       *ABS*	00000000 __alt_mem_sf_ctr_avl_mem
2ffffc00 g       *ABS*	00000000 __alt_heap_limit
200435bc g     F .text	00000014 fclose
2002b26c g     F .text	000000b8 ptp_callback_execute_queue
2003a308 g     F .text	000001a8 .hidden __truncdfsf2
2003d900 g     F .text	00001688 _dtoa_r
2003a53c g     F .text	0000080c _malloc_r
20043bfc g     F .text	00000030 __ascii_wctomb
2009a99c g     O .rwdata	00000004 alt_errno
200246a0 g     F .text	000001d4 wait_event_flag
20033c88 g     F .text	00000058 ptp_calc_add_uint32
2000c164 g     F .text	00000068 gev_get_timer_info
20021bb8 g     F .text	00000058 write_bootstrap_reg
2000cf68 g     F .text	0000009c gev_get_ref_timestamp_param
2003fec0 g     F .text	000000c4 _fwalk
20029550 g     F .text	00000080 ptp_bmc_cycle_foreign_master_window
2001d3dc g     F .text	0000003c gev_pkt_send_task
200089ec g     F .text	00000828 check_pixel_format
200377fc g     F .text	00000084 .hidden __divsi3
2003f5d0 g     F .text	00000124 _malloc_trim_r
200cf0c8 g     O .bss	00000258 g_packet_send_gvcp_discovery
20048100 g       *ABS*	00000000 __CTOR_END__
200301f0 g     F .text	00000030 ptp_servo_get_logSyncInterval
20037f74 g     F .text	000003fc .hidden __mulsf3
20025dc8 g       .text	00000000 _is_task_ctx_mode
20041c30 g     F .text	000000dc strcmp
2000d510 g     F .text	00000148 gev_set_gev_scps_packet_size
200276cc g     F .text	00000038 ptp_sys_scorpius_task
20016f40 g     F .text	0000007c dequeue_sac
20048100 g       *ABS*	00000000 __DTOR_LIST__
2000d7f4 g     F .text	0000008c gev_dhcp_para_req_list_opt
200cf320 g     O .bss	00000258 g_send_packetresend_error_packet
20027e00 g     F .text	00000060 libptp_set_logMinDelayReqInterval
20005370 g     F .text	000000a8 gev_pkt_resnd_task
20033dfc g     F .text	00000058 ptp_calc_sub_uint32
200de608 g     O .bss	00000528 g_task
200441c0 g     F .text	00000088 .hidden __nedf2
20045a88 g     F .text	00000038 alt_irq_init
20026804 g     F .text	00000160 refer_mail_box
200457dc g     F .text	00000064 alt_release_fd
20030fb8 g     F .text	0000014c ptp_servo_set_sample_offset
2002fd10 g     F .text	000000ac ptp_pulse_reset_freq
20027c80 g     F .text	00000060 libptp_set_domainNumber
200497f9 g     O .rodata	00000100 .hidden __clz_tab
2009aad4 g     O .bss	00000004 _PathLocale
2002ecfc g     F .text	000000e4 ptp_conv_logInterval_to_ms
2000e0c8 g     F .text	00000118 heartbeat_timeout
2003576c g     F .text	00000118 ptp_calc_conv_to_TimeInterval
20009f90 g     F .text	000000f8 gev_set_bs_mnfest_tbl
20028ce8 g     F .text	00000034 ptp_bmc_start
20033754 g     F .text	00000024 ptp_slave_sync_is_two_step
2001d6e4 g     F .text	00000050 write_macspire_time_cap_drop_csr_ip_reg
200cf578 g     O .bss	00000258 g_packet_send
20047de8 g     F .text	00000014 atexit
20037df0 g     F .text	000000bc .hidden __gesf2
20029134 g     F .text	000000a0 ptp_set_priority2
20028618 g     F .text	00000068 libptp_set_pulse_gen
200260b4 g     F .text	00000264 cpu_context
200bad10 g     O .bss	00000024 g_data_param
20043354 g     F .text	00000060 _write_r
2002b67c g     F .text	000000a8 ptp_cycle_timer_disable
200051e4 g     F .text	0000009c gev_ptp_set_announce_receipt_timeout
20040100 g     F .text	00000018 setlocale
2001d8f4 g     F .text	000001bc send_arp_req_packet
2009a97c g     O .rwdata	00000004 _impure_ptr
20035524 g     F .text	0000007c ptp_calc_conv_to_uint32_limited
2009aae4 g     O .bss	00000004 alt_argc
2000a5a8 g     F .text	00000134 gev_set_bs_strm_ch_cap
200cf7d0 g     O .bss	00000258 g_packet_pending_ack
2003ef88 g     F .text	0000021c __sflush_r
20027844 g     F .text	00000044 ptp_sys_task_create
20028bcc g     F .text	0000005c libptp_get_step_mode
20047554 g     F .text	00000060 _do_dtors
200184c0 g     F .text	000009d0 gvsp_transfer_start
2002e058 g     F .text	000000bc ptp_message_create_Sync
200400ec g     F .text	00000008 __locale_cjk_lang
200467d0 g     F .text	0000008c alt_epcq_controller_get_info
200309e0 g     F .text	000000dc ptp_servo_open
2009aab0 g     O .bss	00000004 gp_pulse
200050ac g     F .text	0000009c gev_ptp_set_log_sync_interval
20000000 g       *ABS*	00000000 __alt_mem_emif
20027ebc g     F .text	00000054 libptp_get_master_info
200277f8 g     F .text	0000004c ptp_sys_stop
2009aa80 g     O .bss	00000004 gp_currentDS
04018020 g       .exceptions	00000000 alt_irq_entry
20036a28 g     F .text	00000028 ptp_dev_filter_alt_master_flag
2000ca68 g     F .text	00000108 gev_set_bs_chunk_length
2009aab4 g     O .bss	00000004 gp_servo
20020340 g     F .text	00001878 initialize_bootstrap_regs
200deb30 g     O .bss	00001000 stack9
20041044 g     F .text	00000064 __ulp
2000db94 g     F .text	00000534 process_gvcp_discovery_cmd
2003f5b8 g     F .text	00000018 __fp_unlock_all
20005fbc g     F .text	000001b8 check_ip_with_arp
2002838c g     F .text	00000058 libptp_close
2000a1a8 g     F .text	0000011c gev_set_bs_gvcp_cap
20004c70 g     F .text	0000003c gev_ptp_start
2009a988 g     O .rwdata	00000008 alt_fs_list
2009aa48 g     O .bss	00000004 g_interrupt_count
2000ba98 g     F .text	000000bc gev_reg_bs_reg_payload_type_write_func
2000c83c g     F .text	000000a0 gev_set_tx_clk_freq
200cfa28 g     O .bss	00000258 g_packet_force_ip
2001cbb4 g     F .text	0000003c gev_pkt_rcv_task
2002b3f4 g     F .text	000000bc ptp_cycle_handler
200dfb30 g     O .bss	00001000 stack7
200359a4 g     F .text	00000130 ptp_calc_conv_to_Timestamp
200278c0 g     F .text	00000038 ptp_sys_put_sem_app
20020044 g     F .text	000000ec timer_event_ack_free_id
20025774 g     F .text	000001bc put_semaphore
2002f914 g     F .text	00000024 ptp_pulse_close
20000160 g     F .text	00001a4c user_task_1
200271f8 g     F .text	00000030 ptp_net_gev_rcv_callback_from_gev
2002d3ec g     F .text	00000020 ptp_master_close
2001ef2c g     F .text	0000019c process_igmp
20040118 g     F .text	0000000c localeconv
200281fc g     F .text	0000005c libptp_get_unicast_delay_req
20026670 g     F .text	00000194 send_mail_box
200171ec g     F .text	00000a58 gvsp_packetresend_v2
20045150 g     F .text	00000050 alt_ic_isr_register
2000a4c4 g     F .text	000000e4 gev_set_bs_strm_ch_src_port
2001ed34 g     F .text	000001f8 process_icmp
2002769c g     F .text	00000030 ptp_net_interrupt_rcv_message
2009a9cc g     O .bss	00000004 g_handle
2009a9b4 g       *ABS*	00000000 _edata
2000c998 g     F .text	000000d0 gev_set_bs_chunk_id
20008248 g     F .text	00000248 gev_set_frm_mem_param
20046e1c g     F .text	00000250 altera_epcq_controller_init
200301a4 g     F .text	0000004c ptp_servo_set_logSyncInterval
2002f938 g     F .text	000001e4 ptp_pulse_cycle_gen_align_exec
200e1c30 g       *ABS*	00000000 _end
2002b724 g     F .text	000000cc ptp_cycle_timer_restart
20044fa8 g     F .text	00000068 alt_flash_open_dev
20025518 g     F .text	00000198 get_semaphore
2002f620 g     F .text	00000020 ptp_get_main_loop_state
2002c06c g     F .text	000004f0 ptp_set_dataset
20028444 g     F .text	00000060 libptp_stop
20036594 g     F .text	00000034 ptp_dev_set_epoch
200435d0 g     F .text	00000164 __fputwc
200e0b30 g     O .bss	00001000 stack3
20027fcc g     F .text	00000064 libptp_get_clockIdentity
20046068 g     F .text	000000f0 altera_avalon_jtag_uart_ioctl
20004e3c g     F .text	0000009c gev_ptp_set_priority2
20036800 g     F .text	000000d0 ptp_dev_get_epoch
200328d4 g     F .text	00000308 config_logSyncInterval
2000b9dc g     F .text	000000bc gev_reg_bs_reg_ofsty_write_func
2000cc00 g     F .text	00000090 gev_get_scheduled_action_time_low
20045228 g     F .text	0000008c alt_ic_irq_disable
2001c524 g     F .text	0000002c gev_set_func_ptp_pkt_rcv_event
2002f728 g     F .text	00000024 ptp_mng_close
20041b50 g     F .text	0000007c __swrite
2000aa8c g     F .text	00000280 gev_set_ext_bs_reg_num
2009a974 g     O .rwdata	00000004 __malloc_trim_threshold
2002462c g     F .text	00000074 initial_event_flag
200cfc80 g     O .bss	00000960 g_packet_event_cmd
200400e0 g     F .text	0000000c __locale_msgcharset
20027bcc g     F .text	00000054 libptp_set_callback_fnc
20016df8 g     F .text	00000048 init_sac_queue
20019b14 g     F .text	00000020 get_gvsp_v1x_header_size
20047dfc g     F .text	00000038 exit
20028cc4 g     F .text	00000024 ptp_bmc_close
20030b10 g     F .text	00000148 ptp_servo_change_portState
2003ff84 g     F .text	000000c4 _fwalk_reent
200388c4 g     F .text	000000f0 .hidden __floatunsisf
200365c8 g     F .text	00000034 ptp_dev_add_epoch
20040e48 g     F .text	000001fc __mdiff
2002d4b0 g     F .text	0000007c ptp_master_set_logSyncInterval
20045010 g     F .text	00000054 alt_flash_close_dev
2002269c g     F .text	0000027c gev_dhcp_renew_task
200d05e0 g     O .bss	000012c8 g_send_packet_queue
200253e8 g     F .text	00000130 initial_semaphore
20037880 g     F .text	00000074 .hidden __modsi3
200466c0 g     F .text	00000110 alt_epcq_controller_lock
20027c20 g     F .text	00000060 libptp_holdover
2000d768 g     F .text	0000008c gev_accept_broadcast_writereg
2ffffc00 g       *ABS*	00000000 __alt_data_end
04018020 g     F .exceptions	00000000 alt_exception
2003f594 g     F .text	00000004 __sfp_lock_release
2001dab0 g     F .text	000001c4 send_arp_rep_packet
20007b60 g     F .text	00000294 gev_send_evt_cmd
2002ce14 g     F .text	00000044 ptp_start
200d18a8 g     O .bss	00004b08 g_resend_packet_queue
2000677c g     F .text	000000f0 get_receive_net_packet
2009aa4c g     O .bss	00000004 gp_current_task
20027498 g     F .text	00000204 ptp_net_rcv_message
20037118 g     F .text	00000060 .hidden __fixunssfsi
200bad34 g     O .bss	00000064 g_gev_engine_mng
20030c58 g     F .text	00000078 ptp_servo_user_force_holdover
2002021c g     F .text	00000094 timer_event_ack_start
200480cc g     F .text	00000034 _exit
20028680 g     F .text	00000050 libptp_reset_pulse_gen
20028b6c g     F .text	00000060 libptp_set_step_mode
20047190 g     F .text	0000012c alt_alarm_start
20036ad0 g     F .text	0000002c ptp_dev_filter_master_ip_addr
2004697c g     F .text	0000020c alt_epcq_controller_write_block
200292d4 g     F .text	00000060 ptp_set_announceReceiptTimeout
200370b8 g     F .text	00000060 .hidden __muldi3
2000a2c4 g     F .text	000000f4 gev_set_bs_pend_tmout
20040124 g     F .text	000001bc __smakebuf_r
2002f5f0 g     F .text	00000030 ptp_enable_print_analysis
2003b244 g     F .text	00000098 strlen
20025cbc g     F .text	0000010c refer_task
20027a9c g     F .text	00000034 ptp_sys_free
20047920 g     F .text	00000154 open
200d63b0 g     O .bss	00000258 g_net_packet_receive
20008118 g     F .text	00000130 gev_set_bs_dev_mac_addr
200496bc g     O .rodata	00000014 g_table_semaphore_entry
2002b118 g     F .text	00000068 ptp_bmc_dbg_print_foreignMasterDS
20044248 g     F .text	000000dc .hidden __gedf2
2000f570 g     F .text	00000054 send_event_cmd_packet
200333b0 g     F .text	00000280 ptp_slave_rcv_Delay_Resp
2009a984 g     O .rwdata	00000004 __wctomb
20028a14 g     F .text	00000048 libptp_get_dataset
2000cedc g     F .text	0000008c gev_set_ref_timestamp_param
20041e08 g     F .text	00000018 __sprint_r
20028b10 g     F .text	0000005c libptp_get_clockClass
200278f8 g     F .text	00000038 ptp_sys_get_sem_timer
200256b0 g     F .text	000000c4 poll_semaphore
20005ef0 g     F .text	000000cc establish_communication_path
20025ad0 g     F .text	0000012c wakeup_task
2009aa84 g     O .bss	00000004 gp_parentDS
200095bc g     F .text	00000164 gev_set_bs_mnft_name
20006f8c g     F .text	000000b8 gev_get_version
200280e8 g     F .text	0000005c libptp_get_announceReceiptTimeout
20004b20 g     F .text	00000058 alt_tse_phy_check_link_up_down
20027f10 g     F .text	00000060 libptp_get_ptp_state
20021e6c g     F .text	00000670 dhcp_ip_configuration
20024b90 g     F .text	00000104 refer_event_flag
200451a0 g     F .text	00000088 alt_ic_irq_enable
2003d4d4 g     F .text	0000001c __vfprintf_internal
20043c2c g     F .text	0000005c _wctomb_r
20030220 g     F .text	000003dc ptp_servo_set_parameter
20004c34 g     F .text	0000003c gev_ptp_close
20044418 g     F .text	000008fc .hidden __subdf3
20024f40 g     F .text	000000f0 update_task_chain
20027930 g     F .text	00000038 ptp_sys_put_sem_timer
200355a0 g     F .text	0000011c ptp_calc_conv_to_int32_limited
20033630 g     F .text	00000124 ptp_slave_cycle_send_Delay_Req
20028a5c g     F .text	00000058 libptp_set_bmca_mode
2004087c g     F .text	000000b0 __lo0bits
2002ded0 g     F .text	00000040 ptp_message_get_body_Follow_Up
2009a9ac g     O .rwdata	00000008 alt_alarm_list
200474f4 g     F .text	00000060 _do_ctors
2000bfbc g     F .text	0000017c gev_write_macspire_bs_reg
20027da0 g     F .text	00000060 libptp_set_logSyncInterval
20035074 g     F .text	00000218 ptp_calc_logical_shift_left
2000686c g     F .text	0000011c get_receive_ptp_packet
20043b3c g     F .text	000000c0 wcrtomb
20003c0c g     F .text	00000674 init_tse_mac_and_phy
20044eac g     F .text	000000d0 close
2001e46c g     F .text	00000590 check_packet_type
2002fb1c g     F .text	000000b8 ptp_pulse_gen_align
20043758 g     F .text	00000080 fputwc
2003a528 g     F .text	00000014 free
2003f598 g     F .text	00000004 __sinit_lock_acquire
200405f0 g     F .text	00000120 __multadd
200405c8 g     F .text	00000028 _Bfree
2002d3c0 g     F .text	0000002c ptp_master_open
20027968 g     F .text	0000006c ptp_sys_wait_event
20008490 g     F .text	0000010c gev_get_frm_mem_param



Disassembly of section .exceptions:

04018020 <alt_exception>:

        /* 
         * Switch to the exception stack and save the current stack pointer
         * in memory. Uses the et register as a scratch register.
         */
        movhi et, %hi(__alt_exception_stack_pointer - 80)
 4018020:	060bfff4 	movhi	et,12287
        ori   et, et, %lo(__alt_exception_stack_pointer - 80) 
 4018024:	c63fec14 	ori	et,et,65456
        stw   sp, 76(et)
 4018028:	c6c01315 	stw	sp,76(et)
        mov   sp, et
 401802c:	c037883a 	mov	sp,et
         * documentation for details).
         *
         * Leave a gap in the stack frame at 4(sp) for the muldiv handler to
         * store zero into.
         */
        stw   ra,  0(sp)
 4018030:	dfc00015 	stw	ra,0(sp)
        stw   r1,   8(sp)
 4018034:	d8400215 	stw	at,8(sp)
        stw   r2,  12(sp)
 4018038:	d8800315 	stw	r2,12(sp)
        stw   r3,  16(sp)
 401803c:	d8c00415 	stw	r3,16(sp)
        stw   r4,  20(sp)
 4018040:	d9000515 	stw	r4,20(sp)
        stw   r5,  24(sp)
 4018044:	d9400615 	stw	r5,24(sp)
        stw   r6,  28(sp)
 4018048:	d9800715 	stw	r6,28(sp)
        stw   r7,  32(sp)
 401804c:	d9c00815 	stw	r7,32(sp)
        rdctl r5, estatus   /* Read early to avoid usage stall */
 4018050:	000b307a 	rdctl	r5,estatus
        stw   r8,  36(sp)
 4018054:	da000915 	stw	r8,36(sp)
        stw   r9,  40(sp)
 4018058:	da400a15 	stw	r9,40(sp)
        stw   r10, 44(sp)
 401805c:	da800b15 	stw	r10,44(sp)
        stw   r11, 48(sp)
 4018060:	dac00c15 	stw	r11,48(sp)
        stw   r12, 52(sp)
 4018064:	db000d15 	stw	r12,52(sp)
        stw   r13, 56(sp)
 4018068:	db400e15 	stw	r13,56(sp)
        stw   r14, 60(sp)
 401806c:	db800f15 	stw	r14,60(sp)
        stw   r15, 64(sp)
 4018070:	dbc01015 	stw	r15,64(sp)
        /*
         * ea-4 contains the address of the instruction being executed
         * when the exception occured. For interrupt exceptions, we will
         * will be re-issue the isntruction. Store it in 72(sp)
         */
        stw   r5,  68(sp)  /* estatus */
 4018074:	d9401115 	stw	r5,68(sp)
        addi  r15, ea, -4  /* instruction that caused exception */
 4018078:	ebffff04 	addi	r15,ea,-4
        stw   r15,  72(sp)
 401807c:	dbc01215 	stw	r15,72(sp)
#else
        /*
         * Test to see if the exception was a software exception or caused 
         * by an external interrupt, and vector accordingly.
         */
        rdctl r4, ipending
 4018080:	0009313a 	rdctl	r4,ipending
        andi  r2, r5, 1
 4018084:	2880004c 	andi	r2,r5,1
        beq   r2, zero, .Lnot_irq
 4018088:	10000326 	beq	r2,zero,4018098 <alt_exception+0x78>
        beq   r4, zero, .Lnot_irq
 401808c:	20000226 	beq	r4,zero,4018098 <alt_exception+0x78>
        /*
         * Now that all necessary registers have been preserved, call 
         * alt_irq_handler() to process the interrupts.
         */

        call alt_irq_handler
 4018090:	40181080 	call	4018108 <alt_irq_handler>

        .section .exceptions.irqreturn, "xa"

        br    .Lexception_exit
 4018094:	00000706 	br	40180b4 <alt_exception+0x94>
         * upon completion, so we write ea (address of instruction *after*
         * the one where the exception occured) into 72(sp). The actual
         * instruction that caused the exception is written in r2, which these
         * handlers will utilize.
         */
        stw ea, 72(sp) /* EA is PC+4 so will skip over instruction causing exception */
 4018098:	df401215 	stw	ea,72(sp)
.Lunknown_16bit:
        addi.n r4, r4, 2 /* Need PC+2 to skip over instruction causing exception */
        stw r4, 72(sp)

#else /* CDX is not Enabled and all instructions are 32bits */
        ldw r2, -4(ea) /* Instruction value that caused exception */
 401809c:	e8bfff17 	ldw	r2,-4(ea)
         * debugger is present) or go into an infinite loop since the
         * handling behavior is undefined; in that case we will not return here.
         */

        /* Load exception-causing address as first argument (r4) */
        addi   r4, ea, -4
 40180a0:	e93fff04 	addi	r4,ea,-4

        /* Call the instruction-exception entry */
        call   alt_instruction_exception_entry
 40180a4:	40181dc0 	call	40181dc <alt_instruction_exception_entry>
         * instruction
         *
         * Return code was 0: Skip. The instruction after the exception is
         * already stored in 72(sp).
         */
        bne   r2, r0, .Lexception_exit
 40180a8:	1000021e 	bne	r2,zero,40180b4 <alt_exception+0x94>

        /*
         * Otherwise, modify 72(sp) to re-issue the instruction that caused the
         * exception.
         */
        addi  r15, ea, -4  /* instruction that caused exception */
 40180ac:	ebffff04 	addi	r15,ea,-4
        stw   r15,  72(sp)
 40180b0:	dbc01215 	stw	r15,72(sp)
        /* 
         * Restore the saved registers, so that all general purpose registers 
         * have been restored to their state at the time the interrupt occured.
         */

        ldw   r5,  68(sp)
 40180b4:	d9401117 	ldw	r5,68(sp)
        ldw   ea,  72(sp)  /* This becomes the PC once eret is executed */
 40180b8:	df401217 	ldw	ea,72(sp)
        ldw   ra,   0(sp)
 40180bc:	dfc00017 	ldw	ra,0(sp)

        wrctl estatus, r5
 40180c0:	2801707a 	wrctl	estatus,r5

        ldw   r1,   8(sp)
 40180c4:	d8400217 	ldw	at,8(sp)
        ldw   r2,  12(sp)
 40180c8:	d8800317 	ldw	r2,12(sp)
        ldw   r3,  16(sp)
 40180cc:	d8c00417 	ldw	r3,16(sp)
        ldw   r4,  20(sp)
 40180d0:	d9000517 	ldw	r4,20(sp)
        ldw   r5,  24(sp)
 40180d4:	d9400617 	ldw	r5,24(sp)
        ldw   r6,  28(sp)
 40180d8:	d9800717 	ldw	r6,28(sp)
        ldw   r7,  32(sp)
 40180dc:	d9c00817 	ldw	r7,32(sp)

#if defined(ALT_EXCEPTION_STACK) && defined(ALT_STACK_CHECK)
        ldw   et, %gprel(alt_exception_old_stack_limit)(gp)
#endif

        ldw   r8,  36(sp)
 40180e0:	da000917 	ldw	r8,36(sp)
        ldw   r9,  40(sp)
 40180e4:	da400a17 	ldw	r9,40(sp)
        ldw   r10, 44(sp)
 40180e8:	da800b17 	ldw	r10,44(sp)
        ldw   r11, 48(sp)
 40180ec:	dac00c17 	ldw	r11,48(sp)
        ldw   r12, 52(sp)
 40180f0:	db000d17 	ldw	r12,52(sp)
        ldw   r13, 56(sp)
 40180f4:	db400e17 	ldw	r13,56(sp)
        ldw   r14, 60(sp)
 40180f8:	db800f17 	ldw	r14,60(sp)
        ldw   r15, 64(sp)
 40180fc:	dbc01017 	ldw	r15,64(sp)
#ifdef ALT_EXCEPTION_STACK
#ifdef ALT_STACK_CHECK
        stw   et, %gprel(alt_stack_limit_value)(gp)
        stw   zero, %gprel(alt_exception_old_stack_limit)(gp)
#endif /* ALT_STACK_CHECK */
        ldw   sp,  76(sp)
 4018100:	dec01317 	ldw	sp,76(sp)

        /*
         * Return to the interrupted instruction.
         */

        eret
 4018104:	ef80083a 	eret

04018108 <alt_irq_handler>:
 * instruction is present if the macro ALT_CI_INTERRUPT_VECTOR defined.
 */

void alt_irq_handler (void) __attribute__ ((section (".exceptions")));
void alt_irq_handler (void)
{
 4018108:	defff904 	addi	sp,sp,-28
 401810c:	dfc00615 	stw	ra,24(sp)
 4018110:	df000515 	stw	fp,20(sp)
 4018114:	df000504 	addi	fp,sp,20
  
  /*
   * Notify the operating system that we are at interrupt level.
   */ 
  
  ALT_OS_INT_ENTER();
 4018118:	40182500 	call	4018250 <alt_instruction_exception_entry+0x74>
#ifndef NIOS2_EIC_PRESENT
static ALT_INLINE alt_u32 ALT_ALWAYS_INLINE alt_irq_pending (void)
{
  alt_u32 active;

  NIOS2_READ_IPENDING (active);
 401811c:	0005313a 	rdctl	r2,ipending
 4018120:	e0bffe15 	stw	r2,-8(fp)

  return active;
 4018124:	e0bffe17 	ldw	r2,-8(fp)
   * Consider the case where the high priority interupt is asserted during
   * the interrupt entry sequence for a lower priority interrupt to see why
   * this is the case.
   */

  active = alt_irq_pending ();
 4018128:	e0bffb15 	stw	r2,-20(fp)

  do
  {
    i = 0;
 401812c:	e03ffd15 	stw	zero,-12(fp)
    mask = 1;
 4018130:	00800044 	movi	r2,1
 4018134:	e0bffc15 	stw	r2,-16(fp)
     * called to clear the interrupt condition.
     */

    do
    {
      if (active & mask)
 4018138:	e0fffb17 	ldw	r3,-20(fp)
 401813c:	e0bffc17 	ldw	r2,-16(fp)
 4018140:	1884703a 	and	r2,r3,r2
 4018144:	10001426 	beq	r2,zero,4018198 <alt_irq_handler+0x90>
      { 
#ifdef ALT_ENHANCED_INTERRUPT_API_PRESENT
        alt_irq[i].handler(alt_irq[i].context); 
 4018148:	008803b4 	movhi	r2,8206
 401814c:	1086cc04 	addi	r2,r2,6960
 4018150:	e0fffd17 	ldw	r3,-12(fp)
 4018154:	180690fa 	slli	r3,r3,3
 4018158:	10c5883a 	add	r2,r2,r3
 401815c:	10c00017 	ldw	r3,0(r2)
 4018160:	008803b4 	movhi	r2,8206
 4018164:	1086cc04 	addi	r2,r2,6960
 4018168:	e13ffd17 	ldw	r4,-12(fp)
 401816c:	200890fa 	slli	r4,r4,3
 4018170:	1105883a 	add	r2,r2,r4
 4018174:	10800104 	addi	r2,r2,4
 4018178:	10800017 	ldw	r2,0(r2)
 401817c:	1009883a 	mov	r4,r2
 4018180:	183ee83a 	callr	r3
#else
        alt_irq[i].handler(alt_irq[i].context, i); 
#endif
        break;
 4018184:	0001883a 	nop
#ifndef NIOS2_EIC_PRESENT
static ALT_INLINE alt_u32 ALT_ALWAYS_INLINE alt_irq_pending (void)
{
  alt_u32 active;

  NIOS2_READ_IPENDING (active);
 4018188:	0005313a 	rdctl	r2,ipending
 401818c:	e0bfff15 	stw	r2,-4(fp)

  return active;
 4018190:	e0bfff17 	ldw	r2,-4(fp)
 4018194:	00000706 	br	40181b4 <alt_irq_handler+0xac>
      }
      mask <<= 1;
 4018198:	e0bffc17 	ldw	r2,-16(fp)
 401819c:	1085883a 	add	r2,r2,r2
 40181a0:	e0bffc15 	stw	r2,-16(fp)
      i++;
 40181a4:	e0bffd17 	ldw	r2,-12(fp)
 40181a8:	10800044 	addi	r2,r2,1
 40181ac:	e0bffd15 	stw	r2,-12(fp)

    } while (1);
 40181b0:	003fe106 	br	4018138 <__alt_exception_stack_pointer+0xd4018138>

    active = alt_irq_pending ();
 40181b4:	e0bffb15 	stw	r2,-20(fp)
    
  } while (active);
 40181b8:	e0bffb17 	ldw	r2,-20(fp)
 40181bc:	103fdb1e 	bne	r2,zero,401812c <__alt_exception_stack_pointer+0xd401812c>

  /*
   * Notify the operating system that interrupt processing is complete.
   */ 

  ALT_OS_INT_EXIT();
 40181c0:	401825c0 	call	401825c <alt_instruction_exception_entry+0x80>
}
 40181c4:	0001883a 	nop
 40181c8:	e037883a 	mov	sp,fp
 40181cc:	dfc00117 	ldw	ra,4(sp)
 40181d0:	df000017 	ldw	fp,0(sp)
 40181d4:	dec00204 	addi	sp,sp,8
 40181d8:	f800283a 	ret

040181dc <alt_instruction_exception_entry>:
 * that handler if it has been registered. Absent a handler, it will
 * break break or hang as discussed below.
 */
int 
alt_instruction_exception_entry (alt_u32 exception_pc)
{
 40181dc:	defffb04 	addi	sp,sp,-20
 40181e0:	dfc00415 	stw	ra,16(sp)
 40181e4:	df000315 	stw	fp,12(sp)
 40181e8:	df000304 	addi	fp,sp,12
 40181ec:	e13fff15 	stw	r4,-4(fp)
 * NIOS2_EXCEPTION_CAUSE_NOT_PRESENT. Your handling routine should
 * check the validity of the cause argument before proceeding.
 */
#ifdef NIOS2_HAS_EXTRA_EXCEPTION_INFO
  /* Get exception cause & "badaddr" */
  NIOS2_READ_EXCEPTION(cause);
 40181f0:	000531fa 	rdctl	r2,exception
 40181f4:	e0bffd15 	stw	r2,-12(fp)
  cause = ( (cause & NIOS2_EXCEPTION_REG_CAUSE_MASK) >>
 40181f8:	e0bffd17 	ldw	r2,-12(fp)
 40181fc:	10801f0c 	andi	r2,r2,124
 4018200:	1004d0ba 	srli	r2,r2,2
 4018204:	e0bffd15 	stw	r2,-12(fp)
              NIOS2_EXCEPTION_REG_CAUSE_OFST );

  NIOS2_READ_BADADDR(badaddr);
 4018208:	0005333a 	rdctl	r2,badaddr
 401820c:	e0bffe15 	stw	r2,-8(fp)
#else
  cause = NIOS2_EXCEPTION_CAUSE_NOT_PRESENT;
  badaddr = 0;
#endif /* NIOS2_HAS_EXTRA_EXCEPTION_INFO */

  if(alt_instruction_exception_handler) {
 4018210:	d0a06317 	ldw	r2,-32372(gp)
 4018214:	10000726 	beq	r2,zero,4018234 <alt_instruction_exception_entry+0x58>
     * Call handler. Its return value indicates whether the exception-causing
     * instruction should be re-issued. The code that called us,
     * alt_eceptions_entry.S, will look at this value and adjust the ea
     * register as necessary
     */
    return alt_instruction_exception_handler(cause, exception_pc, badaddr);
 4018218:	d0a06317 	ldw	r2,-32372(gp)
 401821c:	e0fffd17 	ldw	r3,-12(fp)
 4018220:	e1bffe17 	ldw	r6,-8(fp)
 4018224:	e17fff17 	ldw	r5,-4(fp)
 4018228:	1809883a 	mov	r4,r3
 401822c:	103ee83a 	callr	r2
 4018230:	00000206 	br	401823c <alt_instruction_exception_entry+0x60>
   *    (a peripheral which negates its interrupt output before its
   *    interrupt handler has been executed will cause spurious interrupts)
   */
  else {
#ifdef NIOS2_HAS_DEBUG_STUB
    NIOS2_BREAK();
 4018234:	003da03a 	break	0
      ;
#endif /* NIOS2_HAS_DEBUG_STUB */
  }

  /* We should not get here. Remove compiler warning. */
  return NIOS2_EXCEPTION_RETURN_REISSUE_INST;
 4018238:	0005883a 	mov	r2,zero
}
 401823c:	e037883a 	mov	sp,fp
 4018240:	dfc00117 	ldw	ra,4(sp)
 4018244:	df000017 	ldw	fp,0(sp)
 4018248:	dec00204 	addi	sp,sp,8
 401824c:	f800283a 	ret
 4018250:	004800b4 	movhi	at,8194
 4018254:	08579504 	addi	at,at,24148
 4018258:	0800683a 	jmp	at
 401825c:	004800b4 	movhi	at,8194
 4018260:	08579904 	addi	at,at,24164
 4018264:	0800683a 	jmp	at

Disassembly of section .text:

20000000 <_start>:

    /* Assume the data cache size is always a power of two. */
#if NIOS2_DCACHE_SIZE > 0x8000
    movhi r2, %hi(NIOS2_DCACHE_SIZE)
#else
    movui r2, NIOS2_DCACHE_SIZE
20000000:	00820014 	movui	r2,2048
#endif

0:
    initd 0(r2)
20000004:	10000033 	initd	0(r2)
#ifdef NIOS2_ECC_PRESENT
    addi r2, r2, -4
#else
    addi r2, r2, -NIOS2_DCACHE_LINE_SIZE
20000008:	10bff804 	addi	r2,r2,-32
#endif
    bgt r2, zero, 0b
2000000c:	00bffd16 	blt	zero,r2,20000004 <__alt_exception_stack_pointer+0xf0000004>

    /*
     * Now that the caches are initialized, set up the stack pointer and global pointer.
     * The values provided by the linker are assumed to be correctly aligned.
     */
    movhi sp, %hi(__alt_stack_pointer)
20000010:	06cbfff4 	movhi	sp,12287
    ori sp, sp, %lo(__alt_stack_pointer)
20000014:	deff0014 	ori	sp,sp,64512
    movhi gp, %hi(_gp)
20000018:	068802b4 	movhi	gp,8202
    ori gp, gp, %lo(_gp)
2000001c:	d68a5914 	ori	gp,gp,10596
 */
#ifndef ALT_SIM_OPTIMIZE
    /* Log that the BSS is about to be cleared. */
    ALT_LOG_PUTS(alt_log_msg_bss)

    movhi r2, %hi(__bss_start)
20000020:	00880274 	movhi	r2,8201
    ori r2, r2, %lo(__bss_start)
20000024:	10aa6d14 	ori	r2,r2,43444

    movhi r3, %hi(__bss_end)
20000028:	00c803b4 	movhi	r3,8206
    ori r3, r3, %lo(__bss_end)
2000002c:	18c70c14 	ori	r3,r3,7216

    beq r2, r3, 1f
20000030:	10c00326 	beq	r2,r3,20000040 <_start+0x40>

0:
    stw zero, (r2)
20000034:	10000015 	stw	zero,0(r2)
    addi r2, r2, 4
20000038:	10800104 	addi	r2,r2,4
    bltu r2, r3, 0b
2000003c:	10fffd36 	bltu	r2,r3,20000034 <__alt_exception_stack_pointer+0xf0000034>

    /* Log that alt_main is about to be called. */
    ALT_LOG_PUTS(alt_log_msg_alt_main)

    /* Call the C entry point. It should never return. */
    call alt_main
20000040:	00455e00 	call	200455e0 <alt_main>

20000044 <alt_after_alt_main>:

    /* Wait in infinite loop in case alt_main does return. */
alt_after_alt_main:
    br alt_after_alt_main
20000044:	003fff06 	br	20000044 <__alt_exception_stack_pointer+0xf0000044>

20000048 <main>:
//
//! @retval  0 : Success
//! @retval -1 : Error
//------------------------------------------------------------------------------
int main(void)
{
20000048:	defffe04 	addi	sp,sp,-8
2000004c:	dfc00115 	stw	ra,4(sp)
20000050:	df000015 	stw	fp,0(sp)
20000054:	d839883a 	mov	fp,sp
	// start RTOS scheduler
	start_scheduler();
20000058:	0024d0c0 	call	20024d0c <start_scheduler>

	while (1) {

	}
2000005c:	003fff06 	br	2000005c <__alt_exception_stack_pointer+0xf000005c>

20000060 <idle_task>:
//! @brief Task 3 function.
//
//! @return None
//------------------------------------------------------------------------------
void idle_task(void)
{
20000060:	defffc04 	addi	sp,sp,-16
20000064:	dfc00315 	stw	ra,12(sp)
20000068:	df000215 	stw	fp,8(sp)
2000006c:	df000204 	addi	fp,sp,8
	int ret;
	u8 task_id;

	ret = get_task_id_in_entry(user_task_2, &task_id);
20000070:	e0bfff04 	addi	r2,fp,-4
20000074:	100b883a 	mov	r5,r2
20000078:	01080034 	movhi	r4,8192
2000007c:	2106eb04 	addi	r4,r4,7084
20000080:	00252f00 	call	200252f0 <get_task_id_in_entry>
20000084:	e0bffe15 	stw	r2,-8(fp)
	if (ret != 0) { printf("ERROR : Can't get task ID!\r\n"); }
20000088:	e0bffe17 	ldw	r2,-8(fp)
2000008c:	10000326 	beq	r2,zero,2000009c <idle_task+0x3c>
20000090:	01080174 	movhi	r4,8197
20000094:	21204004 	addi	r4,r4,-32512
20000098:	003b1600 	call	2003b160 <puts>

	while (1) {
		// check event
		event_observe();
2000009c:	00000d40 	call	200000d4 <event_observe>
		//
		// Fix me!
		// When Ethernet link down, you should do this in interrupt
		// or high priority task.
		//
		if (g_link_status == true) {
200000a0:	d0a01703 	ldbu	r2,-32676(gp)
200000a4:	10803fcc 	andi	r2,r2,255
200000a8:	10000726 	beq	r2,zero,200000c8 <idle_task+0x68>
			if (alt_tse_phy_check_link_up_down() == 0) {
200000ac:	0004b200 	call	20004b20 <alt_tse_phy_check_link_up_down>
200000b0:	1000051e 	bne	r2,zero,200000c8 <idle_task+0x68>
				g_link_status = false;
200000b4:	d0201705 	stb	zero,-32676(gp)
				wakeup_task(task_id);
200000b8:	e0bfff03 	ldbu	r2,-4(fp)
200000bc:	10803fcc 	andi	r2,r2,255
200000c0:	1009883a 	mov	r4,r2
200000c4:	0025ad00 	call	20025ad0 <wakeup_task>
			}
		}

		// sleep
		usleep(10000);
200000c8:	0109c404 	movi	r4,10000
200000cc:	00458f00 	call	200458f0 <usleep>
	}
200000d0:	003ff206 	br	2000009c <__alt_exception_stack_pointer+0xf000009c>

200000d4 <event_observe>:
//! @brief Observe event
//
//! @return None
//------------------------------------------------------------------------------
static void event_observe(void)
{
200000d4:	defffc04 	addi	sp,sp,-16
200000d8:	dfc00315 	stw	ra,12(sp)
200000dc:	df000215 	stw	fp,8(sp)
200000e0:	df000204 	addi	fp,sp,8
	unsigned char pio_data;
	u8 task_id;
	int ret;

	ret = get_task_id_in_entry(user_task_2, &task_id);
200000e4:	e0bfff44 	addi	r2,fp,-3
200000e8:	100b883a 	mov	r5,r2
200000ec:	01080034 	movhi	r4,8192
200000f0:	2106eb04 	addi	r4,r4,7084
200000f4:	00252f00 	call	200252f0 <get_task_id_in_entry>
200000f8:	e0bffe15 	stw	r2,-8(fp)
	if (ret != 0) { printf("ERROR : Can't get task ID!\r\n"); }
200000fc:	e0bffe17 	ldw	r2,-8(fp)
20000100:	10000326 	beq	r2,zero,20000110 <event_observe+0x3c>
20000104:	01080174 	movhi	r4,8197
20000108:	21204004 	addi	r4,r4,-32512
2000010c:	003b1600 	call	2003b160 <puts>

	// get button status
	pio_data = IORD_ALTERA_AVALON_PIO_DATA(GEV_PIO_I_PUSH_SW_BASE);
20000110:	00808034 	movhi	r2,512
20000114:	10800804 	addi	r2,r2,32
20000118:	10800037 	ldwio	r2,0(r2)
2000011c:	e0bfff05 	stb	r2,-4(fp)

	// check USER_PB3 button
//	if ((pio_data & 0x80) == 0) {
	if ((pio_data & 0x1) == 0) {
20000120:	e0bfff03 	ldbu	r2,-4(fp)
20000124:	1080004c 	andi	r2,r2,1
20000128:	1000071e 	bne	r2,zero,20000148 <event_observe+0x74>
		wakeup_task(task_id);
2000012c:	e0bfff43 	ldbu	r2,-3(fp)
20000130:	10803fcc 	andi	r2,r2,255
20000134:	1009883a 	mov	r4,r2
20000138:	0025ad00 	call	20025ad0 <wakeup_task>
		usleep(1000000);
2000013c:	010003f4 	movhi	r4,15
20000140:	21109004 	addi	r4,r4,16960
20000144:	00458f00 	call	200458f0 <usleep>
	}

}
20000148:	0001883a 	nop
2000014c:	e037883a 	mov	sp,fp
20000150:	dfc00117 	ldw	ra,4(sp)
20000154:	df000017 	ldw	fp,0(sp)
20000158:	dec00204 	addi	sp,sp,8
2000015c:	f800283a 	ret

20000160 <user_task_1>:
//! @brief User task 1
//
//! @return None
//------------------------------------------------------------------------------
void user_task_1(void)
{
20000160:	deff1604 	addi	sp,sp,-936
20000164:	dfc0e915 	stw	ra,932(sp)
20000168:	df00e815 	stw	fp,928(sp)
2000016c:	dc00e715 	stw	r16,924(sp)
20000170:	df00e804 	addi	fp,sp,928
	gev_ip_info_t hw_ip_info;

	gev_img_param_t image_param;
	ptp_param_t init_ptp_param;

	unsigned char manufacture_name[] = "Macnica, Inc.";
20000174:	009b98f4 	movhi	r2,28259
20000178:	10985344 	addi	r2,r2,24909
2000017c:	e0bf5b15 	stw	r2,-660(fp)
20000180:	008b1874 	movhi	r2,11361
20000184:	1098da44 	addi	r2,r2,25449
20000188:	e0bf5c15 	stw	r2,-656(fp)
2000018c:	0098dbb4 	movhi	r2,25454
20000190:	10924804 	addi	r2,r2,18720
20000194:	e0bf5d15 	stw	r2,-652(fp)
20000198:	00800b84 	movi	r2,46
2000019c:	e0bf5e0d 	sth	r2,-648(fp)
	unsigned char model_name[] = "CVGT DevKit 1GEV w/ IEEE1588";
200001a0:	00880174 	movhi	r2,8197
200001a4:	10a08104 	addi	r2,r2,-32252
200001a8:	e0ff5e84 	addi	r3,fp,-646
200001ac:	1009883a 	mov	r4,r2
200001b0:	00800744 	movi	r2,29
200001b4:	100d883a 	mov	r6,r2
200001b8:	200b883a 	mov	r5,r4
200001bc:	1809883a 	mov	r4,r3
200001c0:	003adc40 	call	2003adc4 <memcpy>
	unsigned char device_version[] = "2021.04.02";
200001c4:	00800c84 	movi	r2,50
200001c8:	e0bf65c5 	stb	r2,-617(fp)
200001cc:	00800c04 	movi	r2,48
200001d0:	e0bf6605 	stb	r2,-616(fp)
200001d4:	00800c84 	movi	r2,50
200001d8:	e0bf6645 	stb	r2,-615(fp)
200001dc:	00800c44 	movi	r2,49
200001e0:	e0bf6685 	stb	r2,-614(fp)
200001e4:	00800b84 	movi	r2,46
200001e8:	e0bf66c5 	stb	r2,-613(fp)
200001ec:	00800c04 	movi	r2,48
200001f0:	e0bf6705 	stb	r2,-612(fp)
200001f4:	00800d04 	movi	r2,52
200001f8:	e0bf6745 	stb	r2,-611(fp)
200001fc:	00800b84 	movi	r2,46
20000200:	e0bf6785 	stb	r2,-610(fp)
20000204:	00800c04 	movi	r2,48
20000208:	e0bf67c5 	stb	r2,-609(fp)
2000020c:	00800c84 	movi	r2,50
20000210:	e0bf6805 	stb	r2,-608(fp)
20000214:	e03f6845 	stb	zero,-607(fp)
	unsigned char manufacture_info[] = "https://www.m-pression.com";
20000218:	009d1a04 	movi	r2,29800
2000021c:	e0bf688d 	sth	r2,-606(fp)
20000220:	009c1d04 	movi	r2,28788
20000224:	e0bf690d 	sth	r2,-604(fp)
20000228:	008e9cc4 	movi	r2,14963
2000022c:	e0bf698d 	sth	r2,-602(fp)
20000230:	008bcbc4 	movi	r2,12079
20000234:	e0bf6a0d 	sth	r2,-600(fp)
20000238:	009dddc4 	movi	r2,30583
2000023c:	e0bf6a8d 	sth	r2,-598(fp)
20000240:	008b9dc4 	movi	r2,11895
20000244:	e0bf6b0d 	sth	r2,-596(fp)
20000248:	008b5b44 	movi	r2,11629
2000024c:	e0bf6b8d 	sth	r2,-594(fp)
20000250:	009c9c04 	movi	r2,29296
20000254:	e0bf6c0d 	sth	r2,-592(fp)
20000258:	009cd944 	movi	r2,29541
2000025c:	e0bf6c8d 	sth	r2,-590(fp)
20000260:	009a5cc4 	movi	r2,26995
20000264:	e0bf6d0d 	sth	r2,-588(fp)
20000268:	009b9bc4 	movi	r2,28271
2000026c:	e0bf6d8d 	sth	r2,-586(fp)
20000270:	0098cb84 	movi	r2,25390
20000274:	e0bf6e0d 	sth	r2,-584(fp)
20000278:	009b5bc4 	movi	r2,28015
2000027c:	e0bf6e8d 	sth	r2,-582(fp)
20000280:	e03f6f05 	stb	zero,-580(fp)
	unsigned char serial_number[] = "0123456789ABCDE";
20000284:	00880174 	movhi	r2,8197
20000288:	10a08904 	addi	r2,r2,-32220
2000028c:	e0ff6f44 	addi	r3,fp,-579
20000290:	1009883a 	mov	r4,r2
20000294:	00800404 	movi	r2,16
20000298:	100d883a 	mov	r6,r2
2000029c:	200b883a 	mov	r5,r4
200002a0:	1809883a 	mov	r4,r3
200002a4:	003adc40 	call	2003adc4 <memcpy>
	flash_dev_func_t flash_func;
	unsigned char pio_data;
	manifest_table_t manifest_table_data;
	flash_mem_offset_t flash_mem_offset_adder;

	pio_data = IORD_ALTERA_AVALON_PIO_DATA(GEV_PIO_I_DIP_SW_BASE);
200002a8:	00808034 	movhi	r2,512
200002ac:	10800c04 	addi	r2,r2,48
200002b0:	10800037 	ldwio	r2,0(r2)
200002b4:	e0bf3105 	stb	r2,-828(fp)
	// check USER_DIP0 switch
	if ((pio_data & 0x1) == 0) { g_test_version = GEV_VERSION_12; }
200002b8:	e0bf3103 	ldbu	r2,-828(fp)
200002bc:	1080004c 	andi	r2,r2,1
200002c0:	1000031e 	bne	r2,zero,200002d0 <user_task_1+0x170>
200002c4:	00800074 	movhi	r2,1
200002c8:	10800084 	addi	r2,r2,2
200002cc:	d0a00015 	stw	r2,-32768(gp)

	// check USER_DIP1 switch
	if ((pio_data & 0x2) == 0) { image_param.payload_type = GVSP_PAYLOAD_TYPE_RAW_DATA_BINARY; }
200002d0:	e0bf3103 	ldbu	r2,-828(fp)
200002d4:	1080008c 	andi	r2,r2,2
200002d8:	1000031e 	bne	r2,zero,200002e8 <user_task_1+0x188>
200002dc:	00800084 	movi	r2,2
200002e0:	e0bf5415 	stw	r2,-688(fp)
200002e4:	00000206 	br	200002f0 <user_task_1+0x190>
	else                        { image_param.payload_type = GVSP_PAYLOAD_TYPE_IMAGE_DATA_UNCOMPRESSED; }
200002e8:	00800044 	movi	r2,1
200002ec:	e0bf5415 	stw	r2,-688(fp)

	p_bs_reg = malloc(sizeof(gev_bs_reg_t) * 0x10);
200002f0:	01007004 	movi	r4,448
200002f4:	003a5140 	call	2003a514 <malloc>
200002f8:	e0bf3215 	stw	r2,-824(fp)
	p_bs_reg_mem = malloc(sizeof(gev_bs_reg_mem_t) * 0x200);
200002fc:	01100004 	movi	r4,16384
20000300:	003a5140 	call	2003a514 <malloc>
20000304:	e0bf3315 	stw	r2,-820(fp)

	// clear image data parameter
	memset((char *)&g_data_param, 0x00, sizeof(data_param_t));
20000308:	01800904 	movi	r6,36
2000030c:	000b883a 	mov	r5,zero
20000310:	01080334 	movhi	r4,8204
20000314:	212b4404 	addi	r4,r4,-21232
20000318:	003af0c0 	call	2003af0c <memset>

	while (1) {
		// initialize MAC and PHY
		while (1) {
			ret = init_tse_mac_and_phy(mac_addr);
2000031c:	e0bf3704 	addi	r2,fp,-804
20000320:	1009883a 	mov	r4,r2
20000324:	0003c0c0 	call	20003c0c <init_tse_mac_and_phy>
20000328:	e0bf3415 	stw	r2,-816(fp)
			if (ret == 0) { g_link_status = true; break; }
2000032c:	e0bf3417 	ldw	r2,-816(fp)
20000330:	103ffa1e 	bne	r2,zero,2000031c <__alt_exception_stack_pointer+0xf000031c>
20000334:	00800044 	movi	r2,1
20000338:	d0a01705 	stb	r2,-32676(gp)
2000033c:	0001883a 	nop
		}

		/* hw_ip_info.fpga_register_base           = FPGA_REGISTER_BASE; */
		hw_ip_info.fpga_register_base           = GEV_HWIP_AVS0_FPGA_REG_BASE;
20000340:	008100b4 	movhi	r2,1026
20000344:	10890004 	addi	r2,r2,9216
20000348:	e0bf3e15 	stw	r2,-776(fp)
		hw_ip_info.fpga_register_irq            = GEV_HWIP_AVS0_FPGA_REG_IRQ;
2000034c:	00800104 	movi	r2,4
20000350:	e0bf3f15 	stw	r2,-772(fp)
		hw_ip_info.fpga_register_irq_cntl_id    = GEV_HWIP_AVS0_FPGA_REG_IRQ_INTERRUPT_CONTROLLER_ID;
20000354:	e03f4015 	stw	zero,-768(fp)

		/* hw_ip_info.receive_packet_mem_base      = RECEIVE_PACKET_MEM_BASE; */
		hw_ip_info.receive_packet_mem_base      = GEV_HWIP_AVS3_RX_PACKET_BASE;
20000358:	008100b4 	movhi	r2,1026
2000035c:	10860004 	addi	r2,r2,6144
20000360:	e0bf4415 	stw	r2,-752(fp)

		/* hw_ip_info.transmitter_chunk_mem_base   = TRANSMITTER_CHUNK_MEM_BASE; */
		hw_ip_info.transmitter_chunk_mem_base   = GEV_HWIP_AVS4_TX_CHUNK_BASE;
20000364:	008100b4 	movhi	r2,1026
20000368:	10850004 	addi	r2,r2,5120
2000036c:	e0bf4515 	stw	r2,-748(fp)

		/* hw_ip_info.transmitter_gvcp_mem_base    = TRANSMITTER_GVCP_MEM_BASE; */
		hw_ip_info.transmitter_gvcp_mem_base    = GEV_HWIP_AVS2_TX_GVCP_BASE;
20000370:	008100b4 	movhi	r2,1026
20000374:	10870004 	addi	r2,r2,7168
20000378:	e0bf4615 	stw	r2,-744(fp)

		/* hw_ip_info.transmitter_gvsp_mem_base    = TRANSMITTER_GVSP_MEM_BASE; */
		hw_ip_info.transmitter_gvsp_mem_base    = GEV_HWIP_AVS1_TX_GVSP_BASE;
2000037c:	008100b4 	movhi	r2,1026
20000380:	10880004 	addi	r2,r2,8192
20000384:	e0bf4715 	stw	r2,-740(fp)

		hw_ip_info.timer_base                   = TIMER_GEV_BASE;
20000388:	008100b4 	movhi	r2,1026
2000038c:	108a1804 	addi	r2,r2,10336
20000390:	e0bf4115 	stw	r2,-764(fp)
		hw_ip_info.timer_irq                    = TIMER_GEV_IRQ;
20000394:	00800084 	movi	r2,2
20000398:	e0bf4215 	stw	r2,-760(fp)
		hw_ip_info.timer_irq_cntl_id            = TIMER_GEV_IRQ_INTERRUPT_CONTROLLER_ID;
2000039c:	e03f4315 	stw	zero,-756(fp)

		hw_ip_info.avalon_st_clock_frequency    = GEV_TX_CLK_FREQ;
200003a0:	00817db4 	movhi	r2,1526
200003a4:	10b84004 	addi	r2,r2,-7936
200003a8:	e0bf4815 	stw	r2,-736(fp)
		hw_ip_info.frm_ctl_mem_clk_frequency    = GEV_AVM_CLK_FREQ;
200003ac:	00817db4 	movhi	r2,1526
200003b0:	10b84004 	addi	r2,r2,-7936
200003b4:	e0bf4915 	stw	r2,-732(fp)

		hw_ip_info.tse_mac_base                 = EMAC_BASE;
200003b8:	008100b4 	movhi	r2,1026
200003bc:	10840004 	addi	r2,r2,4096
200003c0:	e0bf4a15 	stw	r2,-728(fp)

		hw_ip_info.ptp_clock_base               = PTP_CLOCK_HWIP_BASE;
200003c4:	008100b4 	movhi	r2,1026
200003c8:	10898004 	addi	r2,r2,9728
200003cc:	e0bf4b15 	stw	r2,-724(fp)
		hw_ip_info.ptp_clock_irq_cntl_id        = PTP_CLOCK_HWIP_IRQ_INTERRUPT_CONTROLLER_ID;
200003d0:	e03f4d15 	stw	zero,-716(fp)
		hw_ip_info.ptp_clock_irq                = PTP_CLOCK_HWIP_IRQ;
200003d4:	00800204 	movi	r2,8
200003d8:	e0bf4c15 	stw	r2,-720(fp)

		hw_ip_info.ptp_ts_cap_csr_base          = PTP_TS_CAP_HWIP_CSR_BASE;
200003dc:	008100b4 	movhi	r2,1026
200003e0:	1089c004 	addi	r2,r2,9984
200003e4:	e0bf4e15 	stw	r2,-712(fp)
		hw_ip_info.ptp_ts_cap_csr_irq_cntl_id   = PTP_TS_CAP_HWIP_CSR_IRQ_INTERRUPT_CONTROLLER_ID;
200003e8:	e03f5015 	stw	zero,-704(fp)
		hw_ip_info.ptp_ts_cap_csr_irq           = PTP_TS_CAP_HWIP_CSR_IRQ;
200003ec:	008001c4 	movi	r2,7
200003f0:	e0bf4f15 	stw	r2,-708(fp)
		hw_ip_info.ptp_ts_cap_mem_base          = PTP_TS_CAP_HWIP_MEM_BASE;
200003f4:	00810034 	movhi	r2,1024
200003f8:	e0bf5115 	stw	r2,-700(fp)
		hw_ip_info.ptp_ts_cap_mem_irq_cntl_id   = PTP_TS_CAP_HWIP_MEM_IRQ_INTERRUPT_CONTROLLER_ID;
200003fc:	e03f5315 	stw	zero,-692(fp)
		hw_ip_info.ptp_ts_cap_mem_irq           = PTP_TS_CAP_HWIP_MEM_IRQ;
20000400:	00800184 	movi	r2,6
20000404:	e0bf5215 	stw	r2,-696(fp)
		/* image_param.img_width     = 640; */
		/* image_param.img_height    = 480; */

		// 800x600@60Hz(VESA Guidelines), Freq.40MHz
		// 800x600@72Hz(VESA Guidelines), Freq.50MHz
		image_param.img_width     = 800;
20000408:	0080c804 	movi	r2,800
2000040c:	e0bf550d 	sth	r2,-684(fp)
		image_param.img_height    = 600;
20000410:	00809604 	movi	r2,600
20000414:	e0bf558d 	sth	r2,-682(fp)

		// 1280x720@60Hz(CEA Standard), Freq.74.25MHz
		/* image_param.img_width     = 1280; */
		/* image_param.img_height    = 720; */

		image_param.x_ofst        = 0;
20000418:	e03f560d 	sth	zero,-680(fp)
		image_param.y_ofst        = 0;
2000041c:	e03f568d 	sth	zero,-678(fp)
		image_param.pixel_format  = GVSP_PIX_RGB8;
20000420:	00808634 	movhi	r2,536
20000424:	10800504 	addi	r2,r2,20
20000428:	e0bf5715 	stw	r2,-676(fp)
		image_param.raw_data_size = 0x00100000;
2000042c:	00800434 	movhi	r2,16
20000430:	e0bf5815 	stw	r2,-672(fp)

		/* g_data_param.sensor_width = 1280; */
		/* g_data_param.sensor_height = 1752;   // dummy blank = 1752-720 */
		g_data_param.sensor_width = image_param.img_width;
20000434:	e0bf550b 	ldhu	r2,-684(fp)
20000438:	10ffffcc 	andi	r3,r2,65535
2000043c:	00880334 	movhi	r2,8204
20000440:	10ab4404 	addi	r2,r2,-21232
20000444:	10c00015 	stw	r3,0(r2)
		g_data_param.sensor_height = image_param.img_height;
20000448:	e0bf558b 	ldhu	r2,-682(fp)
2000044c:	10ffffcc 	andi	r3,r2,65535
20000450:	00880334 	movhi	r2,8204
20000454:	10ab4404 	addi	r2,r2,-21232
20000458:	10c00115 	stw	r3,4(r2)

		g_data_param.width = image_param.img_width;
2000045c:	e0bf550b 	ldhu	r2,-684(fp)
20000460:	10ffffcc 	andi	r3,r2,65535
20000464:	00880334 	movhi	r2,8204
20000468:	10ab4404 	addi	r2,r2,-21232
2000046c:	10c00215 	stw	r3,8(r2)
		g_data_param.height = image_param.img_height;
20000470:	e0bf558b 	ldhu	r2,-682(fp)
20000474:	10ffffcc 	andi	r3,r2,65535
20000478:	00880334 	movhi	r2,8204
2000047c:	10ab4404 	addi	r2,r2,-21232
20000480:	10c00315 	stw	r3,12(r2)

		g_data_param.offset_x = image_param.x_ofst;
20000484:	e0bf560b 	ldhu	r2,-680(fp)
20000488:	10ffffcc 	andi	r3,r2,65535
2000048c:	00880334 	movhi	r2,8204
20000490:	10ab4404 	addi	r2,r2,-21232
20000494:	10c00415 	stw	r3,16(r2)
		g_data_param.offset_y = image_param.y_ofst;
20000498:	e0bf568b 	ldhu	r2,-678(fp)
2000049c:	10ffffcc 	andi	r3,r2,65535
200004a0:	00880334 	movhi	r2,8204
200004a4:	10ab4404 	addi	r2,r2,-21232
200004a8:	10c00515 	stw	r3,20(r2)

		g_data_param.pixel_format = image_param.pixel_format;
200004ac:	e0ff5717 	ldw	r3,-676(fp)
200004b0:	00880334 	movhi	r2,8204
200004b4:	10ab4404 	addi	r2,r2,-21232
200004b8:	10c00615 	stw	r3,24(r2)
		g_data_param.payload_type = image_param.payload_type;
200004bc:	e0ff5417 	ldw	r3,-688(fp)
200004c0:	00880334 	movhi	r2,8204
200004c4:	10ab4404 	addi	r2,r2,-21232
200004c8:	10c00715 	stw	r3,28(r2)

		// open GEV engine
		if (g_test_version == GEV_VERSION_20) {
200004cc:	d0e00017 	ldw	r3,-32768(gp)
200004d0:	008000b4 	movhi	r2,2
200004d4:	18801a1e 	bne	r3,r2,20000540 <user_task_1+0x3e0>
			printf("GEV Specification: version 2.0 \r\n");
200004d8:	01080174 	movhi	r4,8197
200004dc:	21204704 	addi	r4,r4,-32484
200004e0:	003b1600 	call	2003b160 <puts>
			g_handle = gev_open(GEV_VERSION_20, hw_ip_info, image_param);
200004e4:	e0bf5417 	ldw	r2,-688(fp)
200004e8:	d8801315 	stw	r2,76(sp)
200004ec:	e0bf5517 	ldw	r2,-684(fp)
200004f0:	d8801415 	stw	r2,80(sp)
200004f4:	e0bf5617 	ldw	r2,-680(fp)
200004f8:	d8801515 	stw	r2,84(sp)
200004fc:	e0bf5717 	ldw	r2,-676(fp)
20000500:	d8801615 	stw	r2,88(sp)
20000504:	e0bf5817 	ldw	r2,-672(fp)
20000508:	d8801715 	stw	r2,92(sp)
2000050c:	d809883a 	mov	r4,sp
20000510:	e0bf4104 	addi	r2,fp,-764
20000514:	00c01304 	movi	r3,76
20000518:	180d883a 	mov	r6,r3
2000051c:	100b883a 	mov	r5,r2
20000520:	003adc40 	call	2003adc4 <memcpy>
20000524:	e17f3e17 	ldw	r5,-776(fp)
20000528:	e1bf3f17 	ldw	r6,-772(fp)
2000052c:	e1ff4017 	ldw	r7,-768(fp)
20000530:	010000b4 	movhi	r4,2
20000534:	0006a600 	call	20006a60 <gev_open>
20000538:	d0a01a15 	stw	r2,-32664(gp)
2000053c:	00001a06 	br	200005a8 <user_task_1+0x448>
		}
		else  {
			printf("GEV Specification: version 1.2 \r\n");
20000540:	01080174 	movhi	r4,8197
20000544:	21205004 	addi	r4,r4,-32448
20000548:	003b1600 	call	2003b160 <puts>
			g_handle = gev_open(GEV_VERSION_12, hw_ip_info, image_param);
2000054c:	e0bf5417 	ldw	r2,-688(fp)
20000550:	d8801315 	stw	r2,76(sp)
20000554:	e0bf5517 	ldw	r2,-684(fp)
20000558:	d8801415 	stw	r2,80(sp)
2000055c:	e0bf5617 	ldw	r2,-680(fp)
20000560:	d8801515 	stw	r2,84(sp)
20000564:	e0bf5717 	ldw	r2,-676(fp)
20000568:	d8801615 	stw	r2,88(sp)
2000056c:	e0bf5817 	ldw	r2,-672(fp)
20000570:	d8801715 	stw	r2,92(sp)
20000574:	d809883a 	mov	r4,sp
20000578:	e0bf4104 	addi	r2,fp,-764
2000057c:	00c01304 	movi	r3,76
20000580:	180d883a 	mov	r6,r3
20000584:	100b883a 	mov	r5,r2
20000588:	003adc40 	call	2003adc4 <memcpy>
2000058c:	e17f3e17 	ldw	r5,-776(fp)
20000590:	e1bf3f17 	ldw	r6,-772(fp)
20000594:	e1ff4017 	ldw	r7,-768(fp)
20000598:	01000074 	movhi	r4,1
2000059c:	21000084 	addi	r4,r4,2
200005a0:	0006a600 	call	20006a60 <gev_open>
200005a4:	d0a01a15 	stw	r2,-32664(gp)
		}

		// get library version
		ret = gev_get_version(g_handle, &major, &minor, &sub);
200005a8:	d0a01a17 	ldw	r2,-32664(gp)
200005ac:	e17f3d84 	addi	r5,fp,-778
200005b0:	e13f3d44 	addi	r4,fp,-779
200005b4:	e0ff3d04 	addi	r3,fp,-780
200005b8:	280f883a 	mov	r7,r5
200005bc:	200d883a 	mov	r6,r4
200005c0:	180b883a 	mov	r5,r3
200005c4:	1009883a 	mov	r4,r2
200005c8:	0006f8c0 	call	20006f8c <gev_get_version>
200005cc:	e0bf3415 	stw	r2,-816(fp)
		if (ret != GEV_ERR_SUCCESS)  { break; }
200005d0:	e0bf3417 	ldw	r2,-816(fp)
200005d4:	1004fd1e 	bne	r2,zero,200019cc <user_task_1+0x186c>
		printf("GEV Library: Ver. %d.%d.%d\r\n", major, minor, sub);
200005d8:	e0bf3d03 	ldbu	r2,-780(fp)
200005dc:	10803fcc 	andi	r2,r2,255
200005e0:	e0ff3d43 	ldbu	r3,-779(fp)
200005e4:	18c03fcc 	andi	r3,r3,255
200005e8:	e13f3d83 	ldbu	r4,-778(fp)
200005ec:	21003fcc 	andi	r4,r4,255
200005f0:	200f883a 	mov	r7,r4
200005f4:	180d883a 	mov	r6,r3
200005f8:	100b883a 	mov	r5,r2
200005fc:	01080174 	movhi	r4,8197
20000600:	21205904 	addi	r4,r4,-32412
20000604:	003b0640 	call	2003b064 <printf>

		// XML file size
		if (g_test_version == GEV_VERSION_20) {
20000608:	d0e00017 	ldw	r3,-32768(gp)
2000060c:	008000b4 	movhi	r2,2
20000610:	1880091e 	bne	r3,r2,20000638 <user_task_1+0x4d8>
			i = strlen((char *)g_xml_file_v20_p1);
20000614:	010801f4 	movhi	r4,8199
20000618:	213ea404 	addi	r4,r4,-1392
2000061c:	003b2440 	call	2003b244 <strlen>
20000620:	e0bf3015 	stw	r2,-832(fp)

			printf("XML file size: %d bytes \r\n", i);
20000624:	e17f3017 	ldw	r5,-832(fp)
20000628:	01080174 	movhi	r4,8197
2000062c:	21206104 	addi	r4,r4,-32380
20000630:	003b0640 	call	2003b064 <printf>
20000634:	00000806 	br	20000658 <user_task_1+0x4f8>
		}
		else  {
			i = strlen((char *)g_xml_file_v12_p1);
20000638:	01080174 	movhi	r4,8197
2000063c:	2126e204 	addi	r4,r4,-25720
20000640:	003b2440 	call	2003b244 <strlen>
20000644:	e0bf3015 	stw	r2,-832(fp)

			printf("XML file size: %d bytes \r\n", i);
20000648:	e17f3017 	ldw	r5,-832(fp)
2000064c:	01080174 	movhi	r4,8197
20000650:	21206104 	addi	r4,r4,-32380
20000654:	003b0640 	call	2003b064 <printf>
		}

		// set Bootstrap register callback functions
		ret = gev_reg_bs_reg_width_write_func(g_handle, width_write, 0);
20000658:	d0a01a17 	ldw	r2,-32664(gp)
2000065c:	000d883a 	mov	r6,zero
20000660:	01480034 	movhi	r5,8192
20000664:	29498a04 	addi	r5,r5,9768
20000668:	1009883a 	mov	r4,r2
2000066c:	000b7a80 	call	2000b7a8 <gev_reg_bs_reg_width_write_func>
20000670:	e0bf3415 	stw	r2,-816(fp)
		if (ret != GEV_ERR_SUCCESS)  { break; }
20000674:	e0bf3417 	ldw	r2,-816(fp)
20000678:	1004d61e 	bne	r2,zero,200019d4 <user_task_1+0x1874>
		ret = gev_reg_bs_reg_height_write_func(g_handle, height_write, 0);
2000067c:	d0a01a17 	ldw	r2,-32664(gp)
20000680:	000d883a 	mov	r6,zero
20000684:	01480034 	movhi	r5,8192
20000688:	2949a804 	addi	r5,r5,9888
2000068c:	1009883a 	mov	r4,r2
20000690:	000b8640 	call	2000b864 <gev_reg_bs_reg_height_write_func>
20000694:	e0bf3415 	stw	r2,-816(fp)
		if (ret != GEV_ERR_SUCCESS)  { break; }
20000698:	e0bf3417 	ldw	r2,-816(fp)
2000069c:	1004cf1e 	bne	r2,zero,200019dc <user_task_1+0x187c>
		ret = gev_reg_bs_reg_ofstx_write_func(g_handle, offset_x_write, 0);
200006a0:	d0a01a17 	ldw	r2,-32664(gp)
200006a4:	000d883a 	mov	r6,zero
200006a8:	01480034 	movhi	r5,8192
200006ac:	294a3404 	addi	r5,r5,10448
200006b0:	1009883a 	mov	r4,r2
200006b4:	000b9200 	call	2000b920 <gev_reg_bs_reg_ofstx_write_func>
200006b8:	e0bf3415 	stw	r2,-816(fp)
		if (ret != GEV_ERR_SUCCESS)  { break; }
200006bc:	e0bf3417 	ldw	r2,-816(fp)
200006c0:	1004c81e 	bne	r2,zero,200019e4 <user_task_1+0x1884>
		ret = gev_reg_bs_reg_ofsty_write_func(g_handle, offset_y_write, 0);
200006c4:	d0a01a17 	ldw	r2,-32664(gp)
200006c8:	000d883a 	mov	r6,zero
200006cc:	01480034 	movhi	r5,8192
200006d0:	294a5204 	addi	r5,r5,10568
200006d4:	1009883a 	mov	r4,r2
200006d8:	000b9dc0 	call	2000b9dc <gev_reg_bs_reg_ofsty_write_func>
200006dc:	e0bf3415 	stw	r2,-816(fp)
		if (ret != GEV_ERR_SUCCESS)  { break; }
200006e0:	e0bf3417 	ldw	r2,-816(fp)
200006e4:	1004c11e 	bne	r2,zero,200019ec <user_task_1+0x188c>
		ret = gev_reg_bs_reg_acquisition_start_func(g_handle, acquisition_start, 0);
200006e8:	d0a01a17 	ldw	r2,-32664(gp)
200006ec:	000d883a 	mov	r6,zero
200006f0:	01480034 	movhi	r5,8192
200006f4:	294aac04 	addi	r5,r5,10928
200006f8:	1009883a 	mov	r4,r2
200006fc:	000bb540 	call	2000bb54 <gev_reg_bs_reg_acquisition_start_func>
20000700:	e0bf3415 	stw	r2,-816(fp)
		if (ret != GEV_ERR_SUCCESS)  { break; }
20000704:	e0bf3417 	ldw	r2,-816(fp)
20000708:	1004ba1e 	bne	r2,zero,200019f4 <user_task_1+0x1894>
		ret = gev_reg_bs_reg_acquisition_stop_func(g_handle, acquisition_stop, 0);
2000070c:	d0a01a17 	ldw	r2,-32664(gp)
20000710:	000d883a 	mov	r6,zero
20000714:	01480034 	movhi	r5,8192
20000718:	294ae304 	addi	r5,r5,11148
2000071c:	1009883a 	mov	r4,r2
20000720:	000bc100 	call	2000bc10 <gev_reg_bs_reg_acquisition_stop_func>
20000724:	e0bf3415 	stw	r2,-816(fp)
		if (ret != GEV_ERR_SUCCESS)  { break; }
20000728:	e0bf3417 	ldw	r2,-816(fp)
2000072c:	1004b31e 	bne	r2,zero,200019fc <user_task_1+0x189c>
		ret = gev_reg_bs_reg_payload_type_write_func(g_handle, payload_type_write, 0);
20000730:	d0a01a17 	ldw	r2,-32664(gp)
20000734:	000d883a 	mov	r6,zero
20000738:	01480034 	movhi	r5,8192
2000073c:	294a8e04 	addi	r5,r5,10808
20000740:	1009883a 	mov	r4,r2
20000744:	000ba980 	call	2000ba98 <gev_reg_bs_reg_payload_type_write_func>
20000748:	e0bf3415 	stw	r2,-816(fp)
		if (ret != GEV_ERR_SUCCESS)  { break; }
2000074c:	e0bf3417 	ldw	r2,-816(fp)
20000750:	1004ac1e 	bne	r2,zero,20001a04 <user_task_1+0x18a4>
		ret = gev_reg_bs_reg_pixel_fromat_write_func(g_handle, pixel_format_write, 0);
20000754:	d0a01a17 	ldw	r2,-32664(gp)
20000758:	000d883a 	mov	r6,zero
2000075c:	01480034 	movhi	r5,8192
20000760:	294a7004 	addi	r5,r5,10688
20000764:	1009883a 	mov	r4,r2
20000768:	000be440 	call	2000be44 <gev_reg_bs_reg_pixel_fromat_write_func>
2000076c:	e0bf3415 	stw	r2,-816(fp)
		if (ret != GEV_ERR_SUCCESS)  { break; }
20000770:	e0bf3417 	ldw	r2,-816(fp)
20000774:	1004a51e 	bne	r2,zero,20001a0c <user_task_1+0x18ac>
		ret = gev_reg_bs_reg_field_count_write_func(g_handle, field_count_write, 0);
20000778:	d0a01a17 	ldw	r2,-32664(gp)
2000077c:	000d883a 	mov	r6,zero
20000780:	01480034 	movhi	r5,8192
20000784:	294af704 	addi	r5,r5,11228
20000788:	1009883a 	mov	r4,r2
2000078c:	000bf000 	call	2000bf00 <gev_reg_bs_reg_field_count_write_func>
20000790:	e0bf3415 	stw	r2,-816(fp)
		if (ret != GEV_ERR_SUCCESS)  { break; }
20000794:	e0bf3417 	ldw	r2,-816(fp)
20000798:	10049e1e 	bne	r2,zero,20001a14 <user_task_1+0x18b4>

		// set flash support information
		flash_func.dev_open  = flash_open_dev;
2000079c:	00880034 	movhi	r2,8192
200007a0:	108b0f04 	addi	r2,r2,11324
200007a4:	e0bf7515 	stw	r2,-556(fp)
		flash_func.dev_close = flash_close_dev;
200007a8:	00880034 	movhi	r2,8192
200007ac:	108b1b04 	addi	r2,r2,11372
200007b0:	e0bf7615 	stw	r2,-552(fp)
		flash_func.dev_write = flash_write_dev;
200007b4:	00880034 	movhi	r2,8192
200007b8:	108b2804 	addi	r2,r2,11424
200007bc:	e0bf7715 	stw	r2,-548(fp)
		flash_func.dev_read  = flash_read_dev;
200007c0:	00880034 	movhi	r2,8192
200007c4:	108b8b04 	addi	r2,r2,11820
200007c8:	e0bf7815 	stw	r2,-544(fp)

		flash_mem_offset_adder.current_ip_configuration     = FLASH_OFFSET_CURRENT_IP_CONFIGURATION;
200007cc:	00808034 	movhi	r2,512
200007d0:	10bff704 	addi	r2,r2,-36
200007d4:	e0bff915 	stw	r2,-28(fp)
		flash_mem_offset_adder.user_defined_name            = FLASH_OFFSET_USER_DEFINED_NAME;
200007d8:	00808034 	movhi	r2,512
200007dc:	10bff804 	addi	r2,r2,-32
200007e0:	e0bffa15 	stw	r2,-24(fp)
		flash_mem_offset_adder.persistent_ip_address_0      = FLASH_OFFSET_PERSISTENT_IP_ADDRESS_0;
200007e4:	00808034 	movhi	r2,512
200007e8:	10bffc04 	addi	r2,r2,-16
200007ec:	e0bffb15 	stw	r2,-20(fp)
		flash_mem_offset_adder.persistent_subnet_mask_0     = FLASH_OFFSET_PERSISTENT_SUBNET_MASK_0;
200007f0:	00808034 	movhi	r2,512
200007f4:	10bffd04 	addi	r2,r2,-12
200007f8:	e0bffc15 	stw	r2,-16(fp)
		flash_mem_offset_adder.persistent_gateway_0         = FLASH_OFFSET_PERSISTENT_GATEWAY_0;
200007fc:	00808034 	movhi	r2,512
20000800:	10bffe04 	addi	r2,r2,-8
20000804:	e0bffd15 	stw	r2,-12(fp)
		flash_mem_offset_adder.gvcp_configuration           = FLASH_OFFSET_GVCP_CONFIGURATION;
20000808:	00808034 	movhi	r2,512
2000080c:	10bfff04 	addi	r2,r2,-4
20000810:	e0bffe15 	stw	r2,-8(fp)

#if 1 // Non-volatile memory supported
		ret = gev_set_flash_param(g_handle, TRUE, SF_CTR_AVL_MEM_BASE, SF_CTR_AVL_MEM_NAME, &flash_func, &flash_mem_offset_adder);
20000814:	d0e01a17 	ldw	r3,-32664(gp)
20000818:	e0bff904 	addi	r2,fp,-28
2000081c:	d8800115 	stw	r2,4(sp)
20000820:	e0bf7404 	addi	r2,fp,-560
20000824:	d8800015 	stw	r2,0(sp)
20000828:	01c80174 	movhi	r7,8197
2000082c:	39e06804 	addi	r7,r7,-32352
20000830:	000d883a 	mov	r6,zero
20000834:	01400044 	movi	r5,1
20000838:	1809883a 	mov	r4,r3
2000083c:	000a6dc0 	call	2000a6dc <gev_set_flash_param>
20000840:	e0bf3415 	stw	r2,-816(fp)
		if (ret != GEV_ERR_SUCCESS)  { break; }
20000844:	e0bf3417 	ldw	r2,-816(fp)
20000848:	1004741e 	bne	r2,zero,20001a1c <user_task_1+0x18bc>

		// set bootstrap Network Interface Capability register
		ret = gev_set_bs_ntwk_if_cap(g_handle,
2000084c:	d0a01a17 	ldw	r2,-32664(gp)
20000850:	014001c4 	movi	r5,7
20000854:	1009883a 	mov	r4,r2
20000858:	00094280 	call	20009428 <gev_set_bs_ntwk_if_cap>
2000085c:	e0bf3415 	stw	r2,-816(fp)
					 GVBS_IP_CONFIGURATION_PERSISTENT |
					 GVBS_IP_CONFIGURATION_DHCP       |
					 GVBS_IP_CONFIGURATION_LLA);
		if (ret != GEV_ERR_SUCCESS)  { break; }
20000860:	e0bf3417 	ldw	r2,-816(fp)
20000864:	10046f1e 	bne	r2,zero,20001a24 <user_task_1+0x18c4>
					 GVBS_IP_CONFIGURATION_DHCP       |
					 GVBS_IP_CONFIGURATION_LLA);
		if (ret != GEV_ERR_SUCCESS)  { break; }
#endif

		if (g_test_version == GEV_VERSION_20) {
20000868:	d0e00017 	ldw	r3,-32768(gp)
2000086c:	008000b4 	movhi	r2,2
20000870:	1880081e 	bne	r3,r2,20000894 <user_task_1+0x734>
			// set bootstrap device mode register
			ret = gev_set_bs_dev_mode(g_handle,
20000874:	d0a01a17 	ldw	r2,-32664(gp)
20000878:	01600034 	movhi	r5,32768
2000087c:	29400044 	addi	r5,r5,1
20000880:	1009883a 	mov	r4,r2
20000884:	00092e00 	call	200092e0 <gev_set_bs_dev_mode>
20000888:	e0bf3415 	stw	r2,-816(fp)
						 (1 << GVBS_DEVICE_MODE_ENDIAN_POS) |
						 GVBS_DEVICE_MODE_CHARACTER_SET_UTF8);  // because validation tool does not support devices which use ASCIIcharacter sets
			if (ret != GEV_ERR_SUCCESS)  { break; }
2000088c:	e0bf3417 	ldw	r2,-816(fp)
20000890:	1004661e 	bne	r2,zero,20001a2c <user_task_1+0x18cc>
		}

#if defined(PTP_SUPPORT)
		if (g_test_version == GEV_VERSION_20) {
20000894:	d0e00017 	ldw	r3,-32768(gp)
20000898:	008000b4 	movhi	r2,2
2000089c:	1880181e 	bne	r3,r2,20000900 <user_task_1+0x7a0>
			// GVSP capability register
			ret = gev_set_bs_gvsp_cap(g_handle, GVBS_GVSP_CAPABILITY_SUPPORT_SCSP | GVBS_GVSP_CAPABILITY_SUPPORT_16BIT);
200008a0:	d0a01a17 	ldw	r2,-32664(gp)
200008a4:	01700034 	movhi	r5,49152
200008a8:	1009883a 	mov	r4,r2
200008ac:	000a0880 	call	2000a088 <gev_set_bs_gvsp_cap>
200008b0:	e0bf3415 	stw	r2,-816(fp)
			if (ret != GEV_ERR_SUCCESS)  { break; }
200008b4:	e0bf3417 	ldw	r2,-816(fp)
200008b8:	10045e1e 	bne	r2,zero,20001a34 <user_task_1+0x18d4>

			// GVCP capability register
			ret = gev_set_bs_gvcp_cap(g_handle,
200008bc:	d0a01a17 	ldw	r2,-32664(gp)
200008c0:	017313b4 	movhi	r5,52302
200008c4:	29401fc4 	addi	r5,r5,127
200008c8:	1009883a 	mov	r4,r2
200008cc:	000a1a80 	call	2000a1a8 <gev_set_bs_gvcp_cap>
200008d0:	e0bf3415 	stw	r2,-816(fp)
									  GVBS_GVCP_CAPABILITY_EVENT_DATA |
									  GVBS_GVCP_CAPABILITY_EVENT |
									  GVBS_GVCP_CAPABILITY_PACKET_RESEND |
									  GVBS_GVCP_CAPABILITY_WRITE_MEMORY |
									  GVBS_GVCP_CAPABILITY_CONCATENATION);
			if (ret != GEV_ERR_SUCCESS)  { break; }
200008d4:	e0bf3417 	ldw	r2,-816(fp)
200008d8:	1004581e 	bne	r2,zero,20001a3c <user_task_1+0x18dc>

			// stream channel capability register
			ret = gev_set_bs_strm_ch_cap(g_handle, GVBS_SCC_PACKET_RESEND_DESTINATION_OPTION | GVBS_SCC_BIG_ENDIAN);
200008dc:	d0a01a17 	ldw	r2,-32664(gp)
200008e0:	01600034 	movhi	r5,32768
200008e4:	29400204 	addi	r5,r5,8
200008e8:	1009883a 	mov	r4,r2
200008ec:	000a5a80 	call	2000a5a8 <gev_set_bs_strm_ch_cap>
200008f0:	e0bf3415 	stw	r2,-816(fp)
			if (ret != GEV_ERR_SUCCESS)  { break; }
200008f4:	e0bf3417 	ldw	r2,-816(fp)
200008f8:	10001126 	beq	r2,zero,20000940 <user_task_1+0x7e0>
200008fc:	0004a806 	br	20001ba0 <user_task_1+0x1a40>
		}
		else {
			// GVCP capability register
			ret = gev_set_bs_gvcp_cap(g_handle,
20000900:	d0a01a17 	ldw	r2,-32664(gp)
20000904:	01731034 	movhi	r5,52288
20000908:	29401fc4 	addi	r5,r5,127
2000090c:	1009883a 	mov	r4,r2
20000910:	000a1a80 	call	2000a1a8 <gev_set_bs_gvcp_cap>
20000914:	e0bf3415 	stw	r2,-816(fp)
									  GVBS_GVCP_CAPABILITY_EVENT_DATA |
									  GVBS_GVCP_CAPABILITY_EVENT |
									  GVBS_GVCP_CAPABILITY_PACKET_RESEND |
									  GVBS_GVCP_CAPABILITY_WRITE_MEMORY |
									  GVBS_GVCP_CAPABILITY_CONCATENATION);
			if (ret != GEV_ERR_SUCCESS)  { break; }
20000918:	e0bf3417 	ldw	r2,-816(fp)
2000091c:	1004491e 	bne	r2,zero,20001a44 <user_task_1+0x18e4>

			// stream channel capability register
			ret = gev_set_bs_strm_ch_cap(g_handle, GVBS_SCC_EXTENDED_CHUNK_DATA | GVBS_SCC_BIG_ENDIAN);
20000920:	d0a01a17 	ldw	r2,-32664(gp)
20000924:	01600034 	movhi	r5,32768
20000928:	29400044 	addi	r5,r5,1
2000092c:	1009883a 	mov	r4,r2
20000930:	000a5a80 	call	2000a5a8 <gev_set_bs_strm_ch_cap>
20000934:	e0bf3415 	stw	r2,-816(fp)
			if (ret != GEV_ERR_SUCCESS)  { break; }
20000938:	e0bf3417 	ldw	r2,-816(fp)
2000093c:	1004431e 	bne	r2,zero,20001a4c <user_task_1+0x18ec>
			if (ret != GEV_ERR_SUCCESS)  { break; }
		}
#endif  // defined(PTP_SUPPORT)

		// manifest table
		memset((char *)&manifest_table_data, 0x00, sizeof(manifest_table_data));
20000940:	e0bf7904 	addi	r2,fp,-540
20000944:	01808004 	movi	r6,512
20000948:	000b883a 	mov	r5,zero
2000094c:	1009883a 	mov	r4,r2
20000950:	003af0c0 	call	2003af0c <memset>
		manifest_table_data.header.header_bit_field.num_entries = 0;
20000954:	e0ff7917 	ldw	r3,-540(fp)
20000958:	00810034 	movhi	r2,1024
2000095c:	10bfffc4 	addi	r2,r2,-1
20000960:	1884703a 	and	r2,r3,r2
20000964:	e0bf7915 	stw	r2,-540(fp)

		manifest_table_data.entry[0].entry_bit_field.xml_major_version = 3;
20000968:	e0ff7b17 	ldw	r3,-532(fp)
2000096c:	00810034 	movhi	r2,1024
20000970:	10bfffc4 	addi	r2,r2,-1
20000974:	1884703a 	and	r2,r3,r2
20000978:	10830034 	orhi	r2,r2,3072
2000097c:	e0bf7b15 	stw	r2,-532(fp)
		manifest_table_data.entry[0].entry_bit_field.xml_minor_version = 0;
20000980:	e0ff7b17 	ldw	r3,-532(fp)
20000984:	00bf0434 	movhi	r2,64528
20000988:	10bfffc4 	addi	r2,r2,-1
2000098c:	1884703a 	and	r2,r3,r2
20000990:	e0bf7b15 	stw	r2,-532(fp)
		manifest_table_data.entry[0].entry_bit_field.xml_sub_minor_version = 0;
20000994:	e0ff7b17 	ldw	r3,-532(fp)
20000998:	00bffc34 	movhi	r2,65520
2000099c:	108fffc4 	addi	r2,r2,16383
200009a0:	1884703a 	and	r2,r3,r2
200009a4:	e0bf7b15 	stw	r2,-532(fp)
		manifest_table_data.entry[0].entry_bit_field.schema_major_version = 1;
200009a8:	e0ff7b17 	ldw	r3,-532(fp)
200009ac:	00b03fc4 	movi	r2,-16129
200009b0:	1884703a 	and	r2,r3,r2
200009b4:	10804014 	ori	r2,r2,256
200009b8:	e0bf7b15 	stw	r2,-532(fp)
		manifest_table_data.entry[0].entry_bit_field.schema_minor_version = 1;
200009bc:	e0ff7b17 	ldw	r3,-532(fp)
200009c0:	00bfc0c4 	movi	r2,-253
200009c4:	1884703a 	and	r2,r3,r2
200009c8:	10800114 	ori	r2,r2,4
200009cc:	e0bf7b15 	stw	r2,-532(fp)

		manifest_table_data.entry[0].url_register_address = 0x00000200;
200009d0:	00808004 	movi	r2,512
200009d4:	e0bf7c15 	stw	r2,-528(fp)

		ret = gev_set_bs_mnfest_tbl(g_handle, (unsigned char *)&manifest_table_data, sizeof(manifest_table_data));
200009d8:	d0a01a17 	ldw	r2,-32664(gp)
200009dc:	e0ff7904 	addi	r3,fp,-540
200009e0:	01808004 	movi	r6,512
200009e4:	180b883a 	mov	r5,r3
200009e8:	1009883a 	mov	r4,r2
200009ec:	0009f900 	call	20009f90 <gev_set_bs_mnfest_tbl>
200009f0:	e0bf3415 	stw	r2,-816(fp)
		if (ret != GEV_ERR_SUCCESS)  { break; }
200009f4:	e0bf3417 	ldw	r2,-816(fp)
200009f8:	1004161e 	bne	r2,zero,20001a54 <user_task_1+0x18f4>

		if (g_test_version == GEV_VERSION_20) {
200009fc:	d0e00017 	ldw	r3,-32768(gp)
20000a00:	008000b4 	movhi	r2,2
20000a04:	18801b1e 	bne	r3,r2,20000a74 <user_task_1+0x914>
			// first URL
			ret = gev_set_bs_fst_url(g_handle, (unsigned char *)g_first_url_v20, strlen((const char *)g_first_url_v20));
20000a08:	d4201a17 	ldw	r16,-32664(gp)
20000a0c:	010801f4 	movhi	r4,8199
20000a10:	213e8404 	addi	r4,r4,-1520
20000a14:	003b2440 	call	2003b244 <strlen>
20000a18:	10bfffcc 	andi	r2,r2,65535
20000a1c:	100d883a 	mov	r6,r2
20000a20:	014801f4 	movhi	r5,8199
20000a24:	297e8404 	addi	r5,r5,-1520
20000a28:	8009883a 	mov	r4,r16
20000a2c:	0009cc80 	call	20009cc8 <gev_set_bs_fst_url>
20000a30:	e0bf3415 	stw	r2,-816(fp)
			if (ret != GEV_ERR_SUCCESS)  { break; }
20000a34:	e0bf3417 	ldw	r2,-816(fp)
20000a38:	1004081e 	bne	r2,zero,20001a5c <user_task_1+0x18fc>

			// second URL
			ret = gev_set_bs_scnd_url(g_handle, (unsigned char *)g_second_url_v20, strlen((const char *)g_second_url_v20));
20000a3c:	d4201a17 	ldw	r16,-32664(gp)
20000a40:	010801f4 	movhi	r4,8199
20000a44:	213e9104 	addi	r4,r4,-1468
20000a48:	003b2440 	call	2003b244 <strlen>
20000a4c:	10bfffcc 	andi	r2,r2,65535
20000a50:	100d883a 	mov	r6,r2
20000a54:	014801f4 	movhi	r5,8199
20000a58:	297e9104 	addi	r5,r5,-1468
20000a5c:	8009883a 	mov	r4,r16
20000a60:	0009e2c0 	call	20009e2c <gev_set_bs_scnd_url>
20000a64:	e0bf3415 	stw	r2,-816(fp)
			if (ret != GEV_ERR_SUCCESS)  { break; }
20000a68:	e0bf3417 	ldw	r2,-816(fp)
20000a6c:	10001b26 	beq	r2,zero,20000adc <user_task_1+0x97c>
20000a70:	00044b06 	br	20001ba0 <user_task_1+0x1a40>
		}
		else  {
			// first URL
			ret = gev_set_bs_fst_url(g_handle, (unsigned char *)g_first_url_v12, strlen((const char *)g_first_url_v12));
20000a74:	d4201a17 	ldw	r16,-32664(gp)
20000a78:	01080174 	movhi	r4,8197
20000a7c:	2126c204 	addi	r4,r4,-25848
20000a80:	003b2440 	call	2003b244 <strlen>
20000a84:	10bfffcc 	andi	r2,r2,65535
20000a88:	100d883a 	mov	r6,r2
20000a8c:	01480174 	movhi	r5,8197
20000a90:	2966c204 	addi	r5,r5,-25848
20000a94:	8009883a 	mov	r4,r16
20000a98:	0009cc80 	call	20009cc8 <gev_set_bs_fst_url>
20000a9c:	e0bf3415 	stw	r2,-816(fp)
			if (ret != GEV_ERR_SUCCESS)  { break; }
20000aa0:	e0bf3417 	ldw	r2,-816(fp)
20000aa4:	1003ef1e 	bne	r2,zero,20001a64 <user_task_1+0x1904>

			// second URL
			ret = gev_set_bs_scnd_url(g_handle, (unsigned char *)g_second_url_v12, strlen((const char *)g_second_url_v12));
20000aa8:	d4201a17 	ldw	r16,-32664(gp)
20000aac:	01080174 	movhi	r4,8197
20000ab0:	2126cf04 	addi	r4,r4,-25796
20000ab4:	003b2440 	call	2003b244 <strlen>
20000ab8:	10bfffcc 	andi	r2,r2,65535
20000abc:	100d883a 	mov	r6,r2
20000ac0:	01480174 	movhi	r5,8197
20000ac4:	2966cf04 	addi	r5,r5,-25796
20000ac8:	8009883a 	mov	r4,r16
20000acc:	0009e2c0 	call	20009e2c <gev_set_bs_scnd_url>
20000ad0:	e0bf3415 	stw	r2,-816(fp)
			if (ret != GEV_ERR_SUCCESS)  { break; }
20000ad4:	e0bf3417 	ldw	r2,-816(fp)
20000ad8:	1003e41e 	bne	r2,zero,20001a6c <user_task_1+0x190c>
		}

		// manufacturer name
		ret = gev_set_bs_mnft_name(g_handle, manufacture_name, strlen((const char *)manufacture_name));
20000adc:	d4201a17 	ldw	r16,-32664(gp)
20000ae0:	e0bf5b04 	addi	r2,fp,-660
20000ae4:	1009883a 	mov	r4,r2
20000ae8:	003b2440 	call	2003b244 <strlen>
20000aec:	10c03fcc 	andi	r3,r2,255
20000af0:	e0bf5b04 	addi	r2,fp,-660
20000af4:	180d883a 	mov	r6,r3
20000af8:	100b883a 	mov	r5,r2
20000afc:	8009883a 	mov	r4,r16
20000b00:	00095bc0 	call	200095bc <gev_set_bs_mnft_name>
20000b04:	e0bf3415 	stw	r2,-816(fp)
		if (ret != GEV_ERR_SUCCESS)  { break; }
20000b08:	e0bf3417 	ldw	r2,-816(fp)
20000b0c:	1003d91e 	bne	r2,zero,20001a74 <user_task_1+0x1914>

		// model name
		ret = gev_set_bs_model_name(g_handle, model_name, strlen((const char *)model_name));
20000b10:	d4201a17 	ldw	r16,-32664(gp)
20000b14:	e0bf5e84 	addi	r2,fp,-646
20000b18:	1009883a 	mov	r4,r2
20000b1c:	003b2440 	call	2003b244 <strlen>
20000b20:	10c03fcc 	andi	r3,r2,255
20000b24:	e0bf5e84 	addi	r2,fp,-646
20000b28:	180d883a 	mov	r6,r3
20000b2c:	100b883a 	mov	r5,r2
20000b30:	8009883a 	mov	r4,r16
20000b34:	00097200 	call	20009720 <gev_set_bs_model_name>
20000b38:	e0bf3415 	stw	r2,-816(fp)
		if (ret != GEV_ERR_SUCCESS)  { break; }
20000b3c:	e0bf3417 	ldw	r2,-816(fp)
20000b40:	1003ce1e 	bne	r2,zero,20001a7c <user_task_1+0x191c>

		// device version
		ret = gev_set_bs_dev_ver(g_handle, device_version, strlen((const char *)device_version));
20000b44:	d4201a17 	ldw	r16,-32664(gp)
20000b48:	e0bf65c4 	addi	r2,fp,-617
20000b4c:	1009883a 	mov	r4,r2
20000b50:	003b2440 	call	2003b244 <strlen>
20000b54:	10c03fcc 	andi	r3,r2,255
20000b58:	e0bf65c4 	addi	r2,fp,-617
20000b5c:	180d883a 	mov	r6,r3
20000b60:	100b883a 	mov	r5,r2
20000b64:	8009883a 	mov	r4,r16
20000b68:	00098840 	call	20009884 <gev_set_bs_dev_ver>
20000b6c:	e0bf3415 	stw	r2,-816(fp)
		if (ret != GEV_ERR_SUCCESS)  { break; }
20000b70:	e0bf3417 	ldw	r2,-816(fp)
20000b74:	1003c31e 	bne	r2,zero,20001a84 <user_task_1+0x1924>

		// manufacturer informations
		ret = gev_set_bs_mnft_info(g_handle, manufacture_info, strlen((const char *)manufacture_info));
20000b78:	d4201a17 	ldw	r16,-32664(gp)
20000b7c:	e0bf6884 	addi	r2,fp,-606
20000b80:	1009883a 	mov	r4,r2
20000b84:	003b2440 	call	2003b244 <strlen>
20000b88:	10c03fcc 	andi	r3,r2,255
20000b8c:	e0bf6884 	addi	r2,fp,-606
20000b90:	180d883a 	mov	r6,r3
20000b94:	100b883a 	mov	r5,r2
20000b98:	8009883a 	mov	r4,r16
20000b9c:	00099e80 	call	200099e8 <gev_set_bs_mnft_info>
20000ba0:	e0bf3415 	stw	r2,-816(fp)
		if (ret != GEV_ERR_SUCCESS)  { break; }
20000ba4:	e0bf3417 	ldw	r2,-816(fp)
20000ba8:	1003b81e 	bne	r2,zero,20001a8c <user_task_1+0x192c>

		// serial number
		ret = gev_set_bs_seri_num(g_handle, serial_number, 15);
20000bac:	d0a01a17 	ldw	r2,-32664(gp)
20000bb0:	e0ff6f44 	addi	r3,fp,-579
20000bb4:	018003c4 	movi	r6,15
20000bb8:	180b883a 	mov	r5,r3
20000bbc:	1009883a 	mov	r4,r2
20000bc0:	0009b4c0 	call	20009b4c <gev_set_bs_seri_num>
20000bc4:	e0bf3415 	stw	r2,-816(fp)
		if (ret != GEV_ERR_SUCCESS)  { break; }
20000bc8:	e0bf3417 	ldw	r2,-816(fp)
20000bcc:	1003b11e 	bne	r2,zero,20001a94 <user_task_1+0x1934>

		// pending timeout unit : ms
		ret = gev_set_bs_pend_tmout(g_handle, 3000);
20000bd0:	d0a01a17 	ldw	r2,-32664(gp)
20000bd4:	0142ee04 	movi	r5,3000
20000bd8:	1009883a 	mov	r4,r2
20000bdc:	000a2c40 	call	2000a2c4 <gev_set_bs_pend_tmout>
20000be0:	e0bf3415 	stw	r2,-816(fp)
		if (ret != GEV_ERR_SUCCESS)  { break; }
20000be4:	e0bf3417 	ldw	r2,-816(fp)
20000be8:	1003ac1e 	bne	r2,zero,20001a9c <user_task_1+0x193c>

		// message channel source port
		ret = gev_set_bs_msg_ch_src_port(g_handle, 49152);
20000bec:	d0a01a17 	ldw	r2,-32664(gp)
20000bf0:	01700014 	movui	r5,49152
20000bf4:	1009883a 	mov	r4,r2
20000bf8:	000a3b80 	call	2000a3b8 <gev_set_bs_msg_ch_src_port>
20000bfc:	e0bf3415 	stw	r2,-816(fp)
		if (ret != GEV_ERR_SUCCESS)  { break; }
20000c00:	e0bf3417 	ldw	r2,-816(fp)
20000c04:	1003a71e 	bne	r2,zero,20001aa4 <user_task_1+0x1944>

		// stream channel source port
		ret = gev_set_bs_strm_ch_src_port(g_handle, 49153);
20000c08:	d0a01a17 	ldw	r2,-32664(gp)
20000c0c:	01700054 	movui	r5,49153
20000c10:	1009883a 	mov	r4,r2
20000c14:	000a4c40 	call	2000a4c4 <gev_set_bs_strm_ch_src_port>
20000c18:	e0bf3415 	stw	r2,-816(fp)
		if (ret != GEV_ERR_SUCCESS)  { break; }
20000c1c:	e0bf3417 	ldw	r2,-816(fp)
20000c20:	1003a21e 	bne	r2,zero,20001aac <user_task_1+0x194c>

		// set action command function
		ret = gev_reg_act_func(g_handle, 0, act_cmd_0, 100);
20000c24:	d0a01a17 	ldw	r2,-32664(gp)
20000c28:	01c01904 	movi	r7,100
20000c2c:	01880034 	movhi	r6,8192
20000c30:	31871604 	addi	r6,r6,7256
20000c34:	000b883a 	mov	r5,zero
20000c38:	1009883a 	mov	r4,r2
20000c3c:	0007a1c0 	call	20007a1c <gev_reg_act_func>
20000c40:	e0bf3415 	stw	r2,-816(fp)
		ret = gev_reg_act_func(g_handle, 1, act_cmd_1, 101);
20000c44:	d0a01a17 	ldw	r2,-32664(gp)
20000c48:	01c01944 	movi	r7,101
20000c4c:	01880034 	movhi	r6,8192
20000c50:	31874004 	addi	r6,r6,7424
20000c54:	01400044 	movi	r5,1
20000c58:	1009883a 	mov	r4,r2
20000c5c:	0007a1c0 	call	20007a1c <gev_reg_act_func>
20000c60:	e0bf3415 	stw	r2,-816(fp)
		ret = gev_reg_act_func(g_handle, 2, act_cmd_2, 102);
20000c64:	d0a01a17 	ldw	r2,-32664(gp)
20000c68:	01c01984 	movi	r7,102
20000c6c:	01880034 	movhi	r6,8192
20000c70:	31877404 	addi	r6,r6,7632
20000c74:	01400084 	movi	r5,2
20000c78:	1009883a 	mov	r4,r2
20000c7c:	0007a1c0 	call	20007a1c <gev_reg_act_func>
20000c80:	e0bf3415 	stw	r2,-816(fp)
		ret = gev_reg_act_func(g_handle, 3, act_cmd_3, 103);
20000c84:	d0a01a17 	ldw	r2,-32664(gp)
20000c88:	01c019c4 	movi	r7,103
20000c8c:	01880034 	movhi	r6,8192
20000c90:	3188db04 	addi	r6,r6,9068
20000c94:	014000c4 	movi	r5,3
20000c98:	1009883a 	mov	r4,r2
20000c9c:	0007a1c0 	call	20007a1c <gev_reg_act_func>
20000ca0:	e0bf3415 	stw	r2,-816(fp)
		ret = gev_reg_act_func(g_handle, 4, act_cmd_4, 104);
20000ca4:	d0a01a17 	ldw	r2,-32664(gp)
20000ca8:	01c01a04 	movi	r7,104
20000cac:	01880034 	movhi	r6,8192
20000cb0:	3188fe04 	addi	r6,r6,9208
20000cb4:	01400104 	movi	r5,4
20000cb8:	1009883a 	mov	r4,r2
20000cbc:	0007a1c0 	call	20007a1c <gev_reg_act_func>
20000cc0:	e0bf3415 	stw	r2,-816(fp)
		ret = gev_reg_act_func(g_handle, 5, act_cmd_5, 105);
20000cc4:	d0a01a17 	ldw	r2,-32664(gp)
20000cc8:	01c01a44 	movi	r7,105
20000ccc:	01880034 	movhi	r6,8192
20000cd0:	31892104 	addi	r6,r6,9348
20000cd4:	01400144 	movi	r5,5
20000cd8:	1009883a 	mov	r4,r2
20000cdc:	0007a1c0 	call	20007a1c <gev_reg_act_func>
20000ce0:	e0bf3415 	stw	r2,-816(fp)
		ret = gev_reg_act_func(g_handle, 6, act_cmd_6, 106);
20000ce4:	d0a01a17 	ldw	r2,-32664(gp)
20000ce8:	01c01a84 	movi	r7,106
20000cec:	01880034 	movhi	r6,8192
20000cf0:	31894404 	addi	r6,r6,9488
20000cf4:	01400184 	movi	r5,6
20000cf8:	1009883a 	mov	r4,r2
20000cfc:	0007a1c0 	call	20007a1c <gev_reg_act_func>
20000d00:	e0bf3415 	stw	r2,-816(fp)
		ret = gev_reg_act_func(g_handle, 7, act_cmd_7, 107);
20000d04:	d0a01a17 	ldw	r2,-32664(gp)
20000d08:	01c01ac4 	movi	r7,107
20000d0c:	01880034 	movhi	r6,8192
20000d10:	31896704 	addi	r6,r6,9628
20000d14:	014001c4 	movi	r5,7
20000d18:	1009883a 	mov	r4,r2
20000d1c:	0007a1c0 	call	20007a1c <gev_reg_act_func>
20000d20:	e0bf3415 	stw	r2,-816(fp)

		// set MAC address
		ret = gev_set_bs_dev_mac_addr(g_handle, mac_addr);
20000d24:	d0a01a17 	ldw	r2,-32664(gp)
20000d28:	e0ff3704 	addi	r3,fp,-804
20000d2c:	180b883a 	mov	r5,r3
20000d30:	1009883a 	mov	r4,r2
20000d34:	00081180 	call	20008118 <gev_set_bs_dev_mac_addr>
20000d38:	e0bf3415 	stw	r2,-816(fp)
		if (ret != GEV_ERR_SUCCESS) { gev_close(g_handle); break; }
20000d3c:	e0bf3417 	ldw	r2,-816(fp)
20000d40:	10000426 	beq	r2,zero,20000d54 <user_task_1+0xbf4>
20000d44:	d0a01a17 	ldw	r2,-32664(gp)
20000d48:	1009883a 	mov	r4,r2
20000d4c:	00070440 	call	20007044 <gev_close>
20000d50:	00039306 	br	20001ba0 <user_task_1+0x1a40>

		// set frame memory parameters
		frm_mem_rng_size                  = 0x08000000;
20000d54:	00820034 	movhi	r2,2048
20000d58:	e0bf3515 	stw	r2,-812(fp)

	//	frm_mem_rng_start_addr            = 0x18000000;
		frm_mem_rng_start_addr            = EMIF_BASE + frm_mem_rng_size ;
20000d5c:	e0ff3517 	ldw	r3,-812(fp)
20000d60:	00880034 	movhi	r2,8192
20000d64:	1885883a 	add	r2,r3,r2
20000d68:	e0bf3615 	stw	r2,-808(fp)

		frm_mem_param.frm_start_addr_ofst = 0;
20000d6c:	e03f3915 	stw	zero,-796(fp)
		frm_mem_param.frm_ofst            = 0x00600000;
20000d70:	00801834 	movhi	r2,96
20000d74:	e0bf3a15 	stw	r2,-792(fp)
		frm_mem_param.frm_num             = 6 + 2; // FRM_RESND_HOLD_MEM = 2
20000d78:	00800204 	movi	r2,8
20000d7c:	e0bf3b0d 	sth	r2,-788(fp)
//		frm_mem_param.frm_num             = 1 + 2; // FRM_RESND_HOLD_MEM = 2
		frm_mem_param.frm_read_dly        = 0x00000400;
20000d80:	00810004 	movi	r2,1024
20000d84:	e0bf3c15 	stw	r2,-784(fp)

		ret = gev_set_frm_mem_param(g_handle, frm_mem_rng_start_addr, frm_mem_rng_size, &frm_mem_param);
20000d88:	d0a01a17 	ldw	r2,-32664(gp)
20000d8c:	e0ff3904 	addi	r3,fp,-796
20000d90:	180f883a 	mov	r7,r3
20000d94:	e1bf3517 	ldw	r6,-812(fp)
20000d98:	e17f3617 	ldw	r5,-808(fp)
20000d9c:	1009883a 	mov	r4,r2
20000da0:	00082480 	call	20008248 <gev_set_frm_mem_param>
20000da4:	e0bf3415 	stw	r2,-816(fp)
		if (ret != GEV_ERR_SUCCESS) { gev_close(g_handle); break; }
20000da8:	e0bf3417 	ldw	r2,-816(fp)
20000dac:	10000426 	beq	r2,zero,20000dc0 <user_task_1+0xc60>
20000db0:	d0a01a17 	ldw	r2,-32664(gp)
20000db4:	1009883a 	mov	r4,r2
20000db8:	00070440 	call	20007044 <gev_close>
20000dbc:	00037806 	br	20001ba0 <user_task_1+0x1a40>

		// set user extended bootstrap register
		ret = gev_set_ext_bs_reg_num(g_handle, 0x1000, 0x10, 0x100);
20000dc0:	d0a01a17 	ldw	r2,-32664(gp)
20000dc4:	01c04004 	movi	r7,256
20000dc8:	01800404 	movi	r6,16
20000dcc:	01440004 	movi	r5,4096
20000dd0:	1009883a 	mov	r4,r2
20000dd4:	000aa8c0 	call	2000aa8c <gev_set_ext_bs_reg_num>
20000dd8:	e0bf3415 	stw	r2,-816(fp)
		if (ret != GEV_ERR_SUCCESS)  { break; }
20000ddc:	e0bf3417 	ldw	r2,-816(fp)
20000de0:	1003341e 	bne	r2,zero,20001ab4 <user_task_1+0x1954>

// ========================================================================== //

		p_bs_reg[0].addr       = GVBS_SENSOR_WIDTH_X_OFFSET;
20000de4:	e0bf3217 	ldw	r2,-824(fp)
20000de8:	00f00014 	movui	r3,49152
20000dec:	10c00015 	stw	r3,0(r2)
		p_bs_reg[0].writable   = TRUE;
20000df0:	e0bf3217 	ldw	r2,-824(fp)
20000df4:	00c00044 	movi	r3,1
20000df8:	10c00105 	stb	r3,4(r2)
		p_bs_reg[0].write_func = width_max_write;
20000dfc:	e0ff3217 	ldw	r3,-824(fp)
20000e00:	00880034 	movhi	r2,8192
20000e04:	1089c604 	addi	r2,r2,10008
20000e08:	18800215 	stw	r2,8(r3)
		p_bs_reg[0].write_arg  = 0;
20000e0c:	e0bf3217 	ldw	r2,-824(fp)
20000e10:	10000315 	stw	zero,12(r2)
		p_bs_reg[0].readable   = TRUE;
20000e14:	e0bf3217 	ldw	r2,-824(fp)
20000e18:	00c00044 	movi	r3,1
20000e1c:	10c00405 	stb	r3,16(r2)
		p_bs_reg[0].read_func  = width_max_read;
20000e20:	e0ff3217 	ldw	r3,-824(fp)
20000e24:	00880034 	movhi	r2,8192
20000e28:	1089e404 	addi	r2,r2,10128
20000e2c:	18800515 	stw	r2,20(r3)
		p_bs_reg[0].read_arg   = 0;
20000e30:	e0bf3217 	ldw	r2,-824(fp)
20000e34:	10000615 	stw	zero,24(r2)

		p_bs_reg[1].addr       = GVBS_SENSOR_HEIGHT_Y_OFFSET;
20000e38:	e0bf3217 	ldw	r2,-824(fp)
20000e3c:	10800704 	addi	r2,r2,28
20000e40:	00f00114 	movui	r3,49156
20000e44:	10c00015 	stw	r3,0(r2)
		p_bs_reg[1].writable   = TRUE;
20000e48:	e0bf3217 	ldw	r2,-824(fp)
20000e4c:	10800704 	addi	r2,r2,28
20000e50:	00c00044 	movi	r3,1
20000e54:	10c00105 	stb	r3,4(r2)
		p_bs_reg[1].write_func = height_max_write;
20000e58:	e0bf3217 	ldw	r2,-824(fp)
20000e5c:	10c00704 	addi	r3,r2,28
20000e60:	00880034 	movhi	r2,8192
20000e64:	1089fd04 	addi	r2,r2,10228
20000e68:	18800215 	stw	r2,8(r3)
		p_bs_reg[1].write_arg  = 0;
20000e6c:	e0bf3217 	ldw	r2,-824(fp)
20000e70:	10800704 	addi	r2,r2,28
20000e74:	10000315 	stw	zero,12(r2)
		p_bs_reg[1].readable   = TRUE;
20000e78:	e0bf3217 	ldw	r2,-824(fp)
20000e7c:	10800704 	addi	r2,r2,28
20000e80:	00c00044 	movi	r3,1
20000e84:	10c00405 	stb	r3,16(r2)
		p_bs_reg[1].read_func  = height_max_read;
20000e88:	e0bf3217 	ldw	r2,-824(fp)
20000e8c:	10c00704 	addi	r3,r2,28
20000e90:	00880034 	movhi	r2,8192
20000e94:	108a1b04 	addi	r2,r2,10348
20000e98:	18800515 	stw	r2,20(r3)
		p_bs_reg[1].read_arg   = 0;
20000e9c:	e0bf3217 	ldw	r2,-824(fp)
20000ea0:	10800704 	addi	r2,r2,28
20000ea4:	10000615 	stw	zero,24(r2)

		// add bootstrap register
		ret = gev_add_bs_reg(g_handle, p_bs_reg, 2);
20000ea8:	d0a01a17 	ldw	r2,-32664(gp)
20000eac:	01800084 	movi	r6,2
20000eb0:	e17f3217 	ldw	r5,-824(fp)
20000eb4:	1009883a 	mov	r4,r2
20000eb8:	000ad0c0 	call	2000ad0c <gev_add_bs_reg>
20000ebc:	e0bf3415 	stw	r2,-816(fp)
		if (ret != GEV_ERR_SUCCESS)  { break; }
20000ec0:	e0bf3417 	ldw	r2,-816(fp)
20000ec4:	1002fd1e 	bne	r2,zero,20001abc <user_task_1+0x195c>

// ========================================================================== //

		p_bs_reg[0].addr       = GVBS_TIMESTAMP_SELECT_OFFSET;
20000ec8:	e0bf3217 	ldw	r2,-824(fp)
20000ecc:	00f00414 	movui	r3,49168
20000ed0:	10c00015 	stw	r3,0(r2)
		p_bs_reg[0].writable   = TRUE;
20000ed4:	e0bf3217 	ldw	r2,-824(fp)
20000ed8:	00c00044 	movi	r3,1
20000edc:	10c00105 	stb	r3,4(r2)
		p_bs_reg[0].write_func = write_timestamp_sel;
20000ee0:	e0ff3217 	ldw	r3,-824(fp)
20000ee4:	00880034 	movhi	r2,8192
20000ee8:	108bc704 	addi	r2,r2,12060
20000eec:	18800215 	stw	r2,8(r3)
		p_bs_reg[0].write_arg  = 0;
20000ef0:	e0bf3217 	ldw	r2,-824(fp)
20000ef4:	10000315 	stw	zero,12(r2)
		p_bs_reg[0].readable   = TRUE;
20000ef8:	e0bf3217 	ldw	r2,-824(fp)
20000efc:	00c00044 	movi	r3,1
20000f00:	10c00405 	stb	r3,16(r2)
		p_bs_reg[0].read_func  = read_timestamp_sel;
20000f04:	e0ff3217 	ldw	r3,-824(fp)
20000f08:	00880034 	movhi	r2,8192
20000f0c:	108bf404 	addi	r2,r2,12240
20000f10:	18800515 	stw	r2,20(r3)
		p_bs_reg[0].read_arg   = 0;
20000f14:	e0bf3217 	ldw	r2,-824(fp)
20000f18:	10000615 	stw	zero,24(r2)

		// add bootstrap register
		ret = gev_add_bs_reg(g_handle, p_bs_reg, 1);
20000f1c:	d0a01a17 	ldw	r2,-32664(gp)
20000f20:	01800044 	movi	r6,1
20000f24:	e17f3217 	ldw	r5,-824(fp)
20000f28:	1009883a 	mov	r4,r2
20000f2c:	000ad0c0 	call	2000ad0c <gev_add_bs_reg>
20000f30:	e0bf3415 	stw	r2,-816(fp)
		if (ret != GEV_ERR_SUCCESS)  { break; }
20000f34:	e0bf3417 	ldw	r2,-816(fp)
20000f38:	1002e21e 	bne	r2,zero,20001ac4 <user_task_1+0x1964>

		// add bootstrap register
		ret = gev_add_bs_reg(g_handle, p_bs_reg, 1);
		if (ret != GEV_ERR_SUCCESS)  { break; }
#else
		p_bs_reg[0].addr       = GVBS_PTP_SET_PRIORITY1_OFFSET;
20000f3c:	e0bf3217 	ldw	r2,-824(fp)
20000f40:	00f00814 	movui	r3,49184
20000f44:	10c00015 	stw	r3,0(r2)
		p_bs_reg[0].writable   = TRUE;
20000f48:	e0bf3217 	ldw	r2,-824(fp)
20000f4c:	00c00044 	movi	r3,1
20000f50:	10c00105 	stb	r3,4(r2)
		p_bs_reg[0].write_func = write_ptp_set_priority1;
20000f54:	e0ff3217 	ldw	r3,-824(fp)
20000f58:	00880034 	movhi	r2,8192
20000f5c:	108c1d04 	addi	r2,r2,12404
20000f60:	18800215 	stw	r2,8(r3)
		p_bs_reg[0].write_arg  = 0;
20000f64:	e0bf3217 	ldw	r2,-824(fp)
20000f68:	10000315 	stw	zero,12(r2)
		p_bs_reg[0].readable   = TRUE;
20000f6c:	e0bf3217 	ldw	r2,-824(fp)
20000f70:	00c00044 	movi	r3,1
20000f74:	10c00405 	stb	r3,16(r2)
		p_bs_reg[0].read_func  = read_ptp_set_priority1;
20000f78:	e0ff3217 	ldw	r3,-824(fp)
20000f7c:	00880034 	movhi	r2,8192
20000f80:	108c4304 	addi	r2,r2,12556
20000f84:	18800515 	stw	r2,20(r3)
		p_bs_reg[0].read_arg   = 0;
20000f88:	e0bf3217 	ldw	r2,-824(fp)
20000f8c:	10000615 	stw	zero,24(r2)

		p_bs_reg[1].addr       = GVBS_PTP_SET_PRIORITY2_OFFSET;
20000f90:	e0bf3217 	ldw	r2,-824(fp)
20000f94:	10800704 	addi	r2,r2,28
20000f98:	00f00914 	movui	r3,49188
20000f9c:	10c00015 	stw	r3,0(r2)
		p_bs_reg[1].writable   = TRUE;
20000fa0:	e0bf3217 	ldw	r2,-824(fp)
20000fa4:	10800704 	addi	r2,r2,28
20000fa8:	00c00044 	movi	r3,1
20000fac:	10c00105 	stb	r3,4(r2)
		p_bs_reg[1].write_func = write_ptp_set_priority2;
20000fb0:	e0bf3217 	ldw	r2,-824(fp)
20000fb4:	10c00704 	addi	r3,r2,28
20000fb8:	00880034 	movhi	r2,8192
20000fbc:	108c5904 	addi	r2,r2,12644
20000fc0:	18800215 	stw	r2,8(r3)
		p_bs_reg[1].write_arg  = 0;
20000fc4:	e0bf3217 	ldw	r2,-824(fp)
20000fc8:	10800704 	addi	r2,r2,28
20000fcc:	10000315 	stw	zero,12(r2)
		p_bs_reg[1].readable   = TRUE;
20000fd0:	e0bf3217 	ldw	r2,-824(fp)
20000fd4:	10800704 	addi	r2,r2,28
20000fd8:	00c00044 	movi	r3,1
20000fdc:	10c00405 	stb	r3,16(r2)
		p_bs_reg[1].read_func  = read_ptp_set_priority2;
20000fe0:	e0bf3217 	ldw	r2,-824(fp)
20000fe4:	10c00704 	addi	r3,r2,28
20000fe8:	00880034 	movhi	r2,8192
20000fec:	108c7f04 	addi	r2,r2,12796
20000ff0:	18800515 	stw	r2,20(r3)
		p_bs_reg[1].read_arg   = 0;
20000ff4:	e0bf3217 	ldw	r2,-824(fp)
20000ff8:	10800704 	addi	r2,r2,28
20000ffc:	10000615 	stw	zero,24(r2)

		p_bs_reg[2].addr       = GVBS_PTP_SET_DOMAIN_NUMBER_OFFSET;
20001000:	e0bf3217 	ldw	r2,-824(fp)
20001004:	10800e04 	addi	r2,r2,56
20001008:	00f00a14 	movui	r3,49192
2000100c:	10c00015 	stw	r3,0(r2)
		p_bs_reg[2].writable   = TRUE;
20001010:	e0bf3217 	ldw	r2,-824(fp)
20001014:	10800e04 	addi	r2,r2,56
20001018:	00c00044 	movi	r3,1
2000101c:	10c00105 	stb	r3,4(r2)
		p_bs_reg[2].write_func = write_ptp_set_domain_number;
20001020:	e0bf3217 	ldw	r2,-824(fp)
20001024:	10c00e04 	addi	r3,r2,56
20001028:	00880034 	movhi	r2,8192
2000102c:	108c9504 	addi	r2,r2,12884
20001030:	18800215 	stw	r2,8(r3)
		p_bs_reg[2].write_arg  = 0;
20001034:	e0bf3217 	ldw	r2,-824(fp)
20001038:	10800e04 	addi	r2,r2,56
2000103c:	10000315 	stw	zero,12(r2)
		p_bs_reg[2].readable   = TRUE;
20001040:	e0bf3217 	ldw	r2,-824(fp)
20001044:	10800e04 	addi	r2,r2,56
20001048:	00c00044 	movi	r3,1
2000104c:	10c00405 	stb	r3,16(r2)
		p_bs_reg[2].read_func  = read_ptp_set_domain_number;
20001050:	e0bf3217 	ldw	r2,-824(fp)
20001054:	10c00e04 	addi	r3,r2,56
20001058:	00880034 	movhi	r2,8192
2000105c:	108cbb04 	addi	r2,r2,13036
20001060:	18800515 	stw	r2,20(r3)
		p_bs_reg[2].read_arg   = 0;
20001064:	e0bf3217 	ldw	r2,-824(fp)
20001068:	10800e04 	addi	r2,r2,56
2000106c:	10000615 	stw	zero,24(r2)

		p_bs_reg[3].addr       = GVBS_PTP_SET_SLAVE_ONLY_OFFSET;
20001070:	e0bf3217 	ldw	r2,-824(fp)
20001074:	10801504 	addi	r2,r2,84
20001078:	00f00b14 	movui	r3,49196
2000107c:	10c00015 	stw	r3,0(r2)
		p_bs_reg[3].writable   = TRUE;
20001080:	e0bf3217 	ldw	r2,-824(fp)
20001084:	10801504 	addi	r2,r2,84
20001088:	00c00044 	movi	r3,1
2000108c:	10c00105 	stb	r3,4(r2)
		p_bs_reg[3].write_func = write_ptp_set_slave_only;
20001090:	e0bf3217 	ldw	r2,-824(fp)
20001094:	10c01504 	addi	r3,r2,84
20001098:	00880034 	movhi	r2,8192
2000109c:	108cd104 	addi	r2,r2,13124
200010a0:	18800215 	stw	r2,8(r3)
		p_bs_reg[3].write_arg  = 0;
200010a4:	e0bf3217 	ldw	r2,-824(fp)
200010a8:	10801504 	addi	r2,r2,84
200010ac:	10000315 	stw	zero,12(r2)
		p_bs_reg[3].readable   = TRUE;
200010b0:	e0bf3217 	ldw	r2,-824(fp)
200010b4:	10801504 	addi	r2,r2,84
200010b8:	00c00044 	movi	r3,1
200010bc:	10c00405 	stb	r3,16(r2)
		p_bs_reg[3].read_func  = read_ptp_set_slave_only;
200010c0:	e0bf3217 	ldw	r2,-824(fp)
200010c4:	10c01504 	addi	r3,r2,84
200010c8:	00880034 	movhi	r2,8192
200010cc:	108d0a04 	addi	r2,r2,13352
200010d0:	18800515 	stw	r2,20(r3)
		p_bs_reg[3].read_arg   = 0;
200010d4:	e0bf3217 	ldw	r2,-824(fp)
200010d8:	10801504 	addi	r2,r2,84
200010dc:	10000615 	stw	zero,24(r2)

		p_bs_reg[4].addr       = GVBS_PTP_SET_LOG_ANNOUNCE_INTERVAL_OFFSET;
200010e0:	e0bf3217 	ldw	r2,-824(fp)
200010e4:	10801c04 	addi	r2,r2,112
200010e8:	00f00c14 	movui	r3,49200
200010ec:	10c00015 	stw	r3,0(r2)
		p_bs_reg[4].writable   = TRUE;
200010f0:	e0bf3217 	ldw	r2,-824(fp)
200010f4:	10801c04 	addi	r2,r2,112
200010f8:	00c00044 	movi	r3,1
200010fc:	10c00105 	stb	r3,4(r2)
		p_bs_reg[4].write_func = write_ptp_set_log_announce_interval;
20001100:	e0bf3217 	ldw	r2,-824(fp)
20001104:	10c01c04 	addi	r3,r2,112
20001108:	00880034 	movhi	r2,8192
2000110c:	108d2604 	addi	r2,r2,13464
20001110:	18800215 	stw	r2,8(r3)
		p_bs_reg[4].write_arg  = 0;
20001114:	e0bf3217 	ldw	r2,-824(fp)
20001118:	10801c04 	addi	r2,r2,112
2000111c:	10000315 	stw	zero,12(r2)
		p_bs_reg[4].readable   = TRUE;
20001120:	e0bf3217 	ldw	r2,-824(fp)
20001124:	10801c04 	addi	r2,r2,112
20001128:	00c00044 	movi	r3,1
2000112c:	10c00405 	stb	r3,16(r2)
		p_bs_reg[4].read_func  = read_ptp_set_log_announce_interval;
20001130:	e0bf3217 	ldw	r2,-824(fp)
20001134:	10c01c04 	addi	r3,r2,112
20001138:	00880034 	movhi	r2,8192
2000113c:	108d4e04 	addi	r2,r2,13624
20001140:	18800515 	stw	r2,20(r3)
		p_bs_reg[4].read_arg   = 0;
20001144:	e0bf3217 	ldw	r2,-824(fp)
20001148:	10801c04 	addi	r2,r2,112
2000114c:	10000615 	stw	zero,24(r2)

		p_bs_reg[5].addr       = GVBS_PTP_SET_LOG_SYNC_INTERVAL_OFFSET;
20001150:	e0bf3217 	ldw	r2,-824(fp)
20001154:	10802304 	addi	r2,r2,140
20001158:	00f00d14 	movui	r3,49204
2000115c:	10c00015 	stw	r3,0(r2)
		p_bs_reg[5].writable   = TRUE;
20001160:	e0bf3217 	ldw	r2,-824(fp)
20001164:	10802304 	addi	r2,r2,140
20001168:	00c00044 	movi	r3,1
2000116c:	10c00105 	stb	r3,4(r2)
		p_bs_reg[5].write_func = write_ptp_set_log_sync_interval;
20001170:	e0bf3217 	ldw	r2,-824(fp)
20001174:	10c02304 	addi	r3,r2,140
20001178:	00880034 	movhi	r2,8192
2000117c:	108d6604 	addi	r2,r2,13720
20001180:	18800215 	stw	r2,8(r3)
		p_bs_reg[5].write_arg  = 0;
20001184:	e0bf3217 	ldw	r2,-824(fp)
20001188:	10802304 	addi	r2,r2,140
2000118c:	10000315 	stw	zero,12(r2)
		p_bs_reg[5].readable   = TRUE;
20001190:	e0bf3217 	ldw	r2,-824(fp)
20001194:	10802304 	addi	r2,r2,140
20001198:	00c00044 	movi	r3,1
2000119c:	10c00405 	stb	r3,16(r2)
		p_bs_reg[5].read_func  = read_ptp_set_log_sync_interval;
200011a0:	e0bf3217 	ldw	r2,-824(fp)
200011a4:	10c02304 	addi	r3,r2,140
200011a8:	00880034 	movhi	r2,8192
200011ac:	108d8e04 	addi	r2,r2,13880
200011b0:	18800515 	stw	r2,20(r3)
		p_bs_reg[5].read_arg   = 0;
200011b4:	e0bf3217 	ldw	r2,-824(fp)
200011b8:	10802304 	addi	r2,r2,140
200011bc:	10000615 	stw	zero,24(r2)

		p_bs_reg[6].addr       = GVBS_PTP_SET_LOG_MIN_DELAY_REQ_INTERVAL_OFFSET;
200011c0:	e0bf3217 	ldw	r2,-824(fp)
200011c4:	10802a04 	addi	r2,r2,168
200011c8:	00f00e14 	movui	r3,49208
200011cc:	10c00015 	stw	r3,0(r2)
		p_bs_reg[6].writable   = TRUE;
200011d0:	e0bf3217 	ldw	r2,-824(fp)
200011d4:	10802a04 	addi	r2,r2,168
200011d8:	00c00044 	movi	r3,1
200011dc:	10c00105 	stb	r3,4(r2)
		p_bs_reg[6].write_func = write_ptp_set_log_min_delay_req_interval;
200011e0:	e0bf3217 	ldw	r2,-824(fp)
200011e4:	10c02a04 	addi	r3,r2,168
200011e8:	00880034 	movhi	r2,8192
200011ec:	108da604 	addi	r2,r2,13976
200011f0:	18800215 	stw	r2,8(r3)
		p_bs_reg[6].write_arg  = 0;
200011f4:	e0bf3217 	ldw	r2,-824(fp)
200011f8:	10802a04 	addi	r2,r2,168
200011fc:	10000315 	stw	zero,12(r2)
		p_bs_reg[6].readable   = TRUE;
20001200:	e0bf3217 	ldw	r2,-824(fp)
20001204:	10802a04 	addi	r2,r2,168
20001208:	00c00044 	movi	r3,1
2000120c:	10c00405 	stb	r3,16(r2)
		p_bs_reg[6].read_func  = read_ptp_set_log_min_delay_req_interval;
20001210:	e0bf3217 	ldw	r2,-824(fp)
20001214:	10c02a04 	addi	r3,r2,168
20001218:	00880034 	movhi	r2,8192
2000121c:	108dce04 	addi	r2,r2,14136
20001220:	18800515 	stw	r2,20(r3)
		p_bs_reg[6].read_arg   = 0;
20001224:	e0bf3217 	ldw	r2,-824(fp)
20001228:	10802a04 	addi	r2,r2,168
2000122c:	10000615 	stw	zero,24(r2)

		p_bs_reg[7].addr       = GVBS_PTP_SET_ANNOUNCE_RECEIPT_TIMEOUT_OFFSET;
20001230:	e0bf3217 	ldw	r2,-824(fp)
20001234:	10803104 	addi	r2,r2,196
20001238:	00f00f14 	movui	r3,49212
2000123c:	10c00015 	stw	r3,0(r2)
		p_bs_reg[7].writable   = TRUE;
20001240:	e0bf3217 	ldw	r2,-824(fp)
20001244:	10803104 	addi	r2,r2,196
20001248:	00c00044 	movi	r3,1
2000124c:	10c00105 	stb	r3,4(r2)
		p_bs_reg[7].write_func = write_ptp_set_announce_receipt_timeout;
20001250:	e0bf3217 	ldw	r2,-824(fp)
20001254:	10c03104 	addi	r3,r2,196
20001258:	00880034 	movhi	r2,8192
2000125c:	108de604 	addi	r2,r2,14232
20001260:	18800215 	stw	r2,8(r3)
		p_bs_reg[7].write_arg  = 0;
20001264:	e0bf3217 	ldw	r2,-824(fp)
20001268:	10803104 	addi	r2,r2,196
2000126c:	10000315 	stw	zero,12(r2)
		p_bs_reg[7].readable   = TRUE;
20001270:	e0bf3217 	ldw	r2,-824(fp)
20001274:	10803104 	addi	r2,r2,196
20001278:	00c00044 	movi	r3,1
2000127c:	10c00405 	stb	r3,16(r2)
		p_bs_reg[7].read_func  = read_ptp_set_announce_receipt_timeout;
20001280:	e0bf3217 	ldw	r2,-824(fp)
20001284:	10c03104 	addi	r3,r2,196
20001288:	00880034 	movhi	r2,8192
2000128c:	108e0c04 	addi	r2,r2,14384
20001290:	18800515 	stw	r2,20(r3)
		p_bs_reg[7].read_arg   = 0;
20001294:	e0bf3217 	ldw	r2,-824(fp)
20001298:	10803104 	addi	r2,r2,196
2000129c:	10000615 	stw	zero,24(r2)

		// add bootstrap register
		ret = gev_add_bs_reg(g_handle, p_bs_reg, 8);
200012a0:	d0a01a17 	ldw	r2,-32664(gp)
200012a4:	01800204 	movi	r6,8
200012a8:	e17f3217 	ldw	r5,-824(fp)
200012ac:	1009883a 	mov	r4,r2
200012b0:	000ad0c0 	call	2000ad0c <gev_add_bs_reg>
200012b4:	e0bf3415 	stw	r2,-816(fp)
		if (ret != GEV_ERR_SUCCESS)  { break; }
200012b8:	e0bf3417 	ldw	r2,-816(fp)
200012bc:	1002031e 	bne	r2,zero,20001acc <user_task_1+0x196c>
#endif  // defined(PTP_SLAVE_ONLY)
#endif  // defined(PTP_SUPPORT)

		p_bs_reg[0].addr       = GVBS_SET_TIMESTAMP_INITIAL_VALUE_OFFSET;
200012c0:	e0bf3217 	ldw	r2,-824(fp)
200012c4:	00f01014 	movui	r3,49216
200012c8:	10c00015 	stw	r3,0(r2)
		p_bs_reg[0].writable   = TRUE;
200012cc:	e0bf3217 	ldw	r2,-824(fp)
200012d0:	00c00044 	movi	r3,1
200012d4:	10c00105 	stb	r3,4(r2)
		p_bs_reg[0].write_func = write_set_timestamp_initial_value;
200012d8:	e0ff3217 	ldw	r3,-824(fp)
200012dc:	00880034 	movhi	r2,8192
200012e0:	108e2204 	addi	r2,r2,14472
200012e4:	18800215 	stw	r2,8(r3)
		p_bs_reg[0].write_arg  = 0;
200012e8:	e0bf3217 	ldw	r2,-824(fp)
200012ec:	10000315 	stw	zero,12(r2)
		p_bs_reg[0].readable   = FALSE;
200012f0:	e0bf3217 	ldw	r2,-824(fp)
200012f4:	10000405 	stb	zero,16(r2)
		p_bs_reg[0].read_func  = NULL;
200012f8:	e0bf3217 	ldw	r2,-824(fp)
200012fc:	10000515 	stw	zero,20(r2)
		p_bs_reg[0].read_arg   = 0;
20001300:	e0bf3217 	ldw	r2,-824(fp)
20001304:	10000615 	stw	zero,24(r2)

		p_bs_reg[1].addr       = GVBS_TIMESTAMP_INITIAL_VALUE_HIGH_OFFSET;
20001308:	e0bf3217 	ldw	r2,-824(fp)
2000130c:	10800704 	addi	r2,r2,28
20001310:	00f01114 	movui	r3,49220
20001314:	10c00015 	stw	r3,0(r2)
		p_bs_reg[1].writable   = TRUE;
20001318:	e0bf3217 	ldw	r2,-824(fp)
2000131c:	10800704 	addi	r2,r2,28
20001320:	00c00044 	movi	r3,1
20001324:	10c00105 	stb	r3,4(r2)
		p_bs_reg[1].write_func = write_timestamp_initial_value_high;
20001328:	e0bf3217 	ldw	r2,-824(fp)
2000132c:	10c00704 	addi	r3,r2,28
20001330:	00880034 	movhi	r2,8192
20001334:	108e6304 	addi	r2,r2,14732
20001338:	18800215 	stw	r2,8(r3)
		p_bs_reg[1].write_arg  = 0;
2000133c:	e0bf3217 	ldw	r2,-824(fp)
20001340:	10800704 	addi	r2,r2,28
20001344:	10000315 	stw	zero,12(r2)
		p_bs_reg[1].readable   = FALSE;
20001348:	e0bf3217 	ldw	r2,-824(fp)
2000134c:	10800704 	addi	r2,r2,28
20001350:	10000405 	stb	zero,16(r2)
		p_bs_reg[1].read_func  = NULL;
20001354:	e0bf3217 	ldw	r2,-824(fp)
20001358:	10800704 	addi	r2,r2,28
2000135c:	10000515 	stw	zero,20(r2)
		p_bs_reg[1].read_arg   = 0;
20001360:	e0bf3217 	ldw	r2,-824(fp)
20001364:	10800704 	addi	r2,r2,28
20001368:	10000615 	stw	zero,24(r2)

		p_bs_reg[2].addr       = GVBS_TIMESTAMP_INITIAL_VALUE_LOW_OFFSET;
2000136c:	e0bf3217 	ldw	r2,-824(fp)
20001370:	10800e04 	addi	r2,r2,56
20001374:	00f01214 	movui	r3,49224
20001378:	10c00015 	stw	r3,0(r2)
		p_bs_reg[2].writable   = TRUE;
2000137c:	e0bf3217 	ldw	r2,-824(fp)
20001380:	10800e04 	addi	r2,r2,56
20001384:	00c00044 	movi	r3,1
20001388:	10c00105 	stb	r3,4(r2)
		p_bs_reg[2].write_func = write_timestamp_initial_value_low;
2000138c:	e0bf3217 	ldw	r2,-824(fp)
20001390:	10c00e04 	addi	r3,r2,56
20001394:	00880034 	movhi	r2,8192
20001398:	108e7804 	addi	r2,r2,14816
2000139c:	18800215 	stw	r2,8(r3)
		p_bs_reg[2].write_arg  = 0;
200013a0:	e0bf3217 	ldw	r2,-824(fp)
200013a4:	10800e04 	addi	r2,r2,56
200013a8:	10000315 	stw	zero,12(r2)
		p_bs_reg[2].readable   = FALSE;
200013ac:	e0bf3217 	ldw	r2,-824(fp)
200013b0:	10800e04 	addi	r2,r2,56
200013b4:	10000405 	stb	zero,16(r2)
		p_bs_reg[2].read_func  = NULL;
200013b8:	e0bf3217 	ldw	r2,-824(fp)
200013bc:	10800e04 	addi	r2,r2,56
200013c0:	10000515 	stw	zero,20(r2)
		p_bs_reg[2].read_arg   = 0;
200013c4:	e0bf3217 	ldw	r2,-824(fp)
200013c8:	10800e04 	addi	r2,r2,56
200013cc:	10000615 	stw	zero,24(r2)

		p_bs_reg[3].addr       = GVBS_ACCEPT_BROADCAST_WRITEREG_OFFSET;
200013d0:	e0bf3217 	ldw	r2,-824(fp)
200013d4:	10801504 	addi	r2,r2,84
200013d8:	00f01414 	movui	r3,49232
200013dc:	10c00015 	stw	r3,0(r2)
		p_bs_reg[3].writable   = TRUE;
200013e0:	e0bf3217 	ldw	r2,-824(fp)
200013e4:	10801504 	addi	r2,r2,84
200013e8:	00c00044 	movi	r3,1
200013ec:	10c00105 	stb	r3,4(r2)
		p_bs_reg[3].write_func = write_accept_broadcast_writereg;
200013f0:	e0bf3217 	ldw	r2,-824(fp)
200013f4:	10c01504 	addi	r3,r2,84
200013f8:	00880034 	movhi	r2,8192
200013fc:	108e8d04 	addi	r2,r2,14900
20001400:	18800215 	stw	r2,8(r3)
		p_bs_reg[3].write_arg  = 0;
20001404:	e0bf3217 	ldw	r2,-824(fp)
20001408:	10801504 	addi	r2,r2,84
2000140c:	10000315 	stw	zero,12(r2)
		p_bs_reg[3].readable   = TRUE;
20001410:	e0bf3217 	ldw	r2,-824(fp)
20001414:	10801504 	addi	r2,r2,84
20001418:	00c00044 	movi	r3,1
2000141c:	10c00405 	stb	r3,16(r2)
		p_bs_reg[3].read_func  = read_accept_broadcast_writereg;
20001420:	e0bf3217 	ldw	r2,-824(fp)
20001424:	10c01504 	addi	r3,r2,84
20001428:	00880034 	movhi	r2,8192
2000142c:	108ec604 	addi	r2,r2,15128
20001430:	18800515 	stw	r2,20(r3)
		p_bs_reg[3].read_arg   = 0;
20001434:	e0bf3217 	ldw	r2,-824(fp)
20001438:	10801504 	addi	r2,r2,84
2000143c:	10000615 	stw	zero,24(r2)

		p_bs_reg[4].addr       = GVBS_DEVICE_RESET_OFFSET;
20001440:	e0bf3217 	ldw	r2,-824(fp)
20001444:	10801c04 	addi	r2,r2,112
20001448:	00f40014 	movui	r3,53248
2000144c:	10c00015 	stw	r3,0(r2)
		p_bs_reg[4].writable   = TRUE;
20001450:	e0bf3217 	ldw	r2,-824(fp)
20001454:	10801c04 	addi	r2,r2,112
20001458:	00c00044 	movi	r3,1
2000145c:	10c00105 	stb	r3,4(r2)
		p_bs_reg[4].write_func = write_device_reset;
20001460:	e0bf3217 	ldw	r2,-824(fp)
20001464:	10c01c04 	addi	r3,r2,112
20001468:	00880034 	movhi	r2,8192
2000146c:	108ee204 	addi	r2,r2,15240
20001470:	18800215 	stw	r2,8(r3)
		p_bs_reg[4].write_arg  = 0;
20001474:	e0bf3217 	ldw	r2,-824(fp)
20001478:	10801c04 	addi	r2,r2,112
2000147c:	10000315 	stw	zero,12(r2)
		p_bs_reg[4].readable   = FALSE;
20001480:	e0bf3217 	ldw	r2,-824(fp)
20001484:	10801c04 	addi	r2,r2,112
20001488:	10000405 	stb	zero,16(r2)
		p_bs_reg[4].read_func  = NULL;
2000148c:	e0bf3217 	ldw	r2,-824(fp)
20001490:	10801c04 	addi	r2,r2,112
20001494:	10000515 	stw	zero,20(r2)
		p_bs_reg[4].read_arg   = 0;
20001498:	e0bf3217 	ldw	r2,-824(fp)
2000149c:	10801c04 	addi	r2,r2,112
200014a0:	10000615 	stw	zero,24(r2)

		// add bootstrap register
		ret = gev_add_bs_reg(g_handle, p_bs_reg, 5);
200014a4:	d0a01a17 	ldw	r2,-32664(gp)
200014a8:	01800144 	movi	r6,5
200014ac:	e17f3217 	ldw	r5,-824(fp)
200014b0:	1009883a 	mov	r4,r2
200014b4:	000ad0c0 	call	2000ad0c <gev_add_bs_reg>
200014b8:	e0bf3415 	stw	r2,-816(fp)
		if (ret != GEV_ERR_SUCCESS)  { break; }
200014bc:	e0bf3417 	ldw	r2,-816(fp)
200014c0:	1001841e 	bne	r2,zero,20001ad4 <user_task_1+0x1974>

// ========================================================================== //

		p_bs_reg_mem[0].addr       = 0x200000;
200014c4:	e0bf3317 	ldw	r2,-820(fp)
200014c8:	00c00834 	movhi	r3,32
200014cc:	10c00015 	stw	r3,0(r2)
		p_bs_reg_mem[0].mem_size   = 0x30000;
200014d0:	e0bf3317 	ldw	r2,-820(fp)
200014d4:	00c000f4 	movhi	r3,3
200014d8:	10c00115 	stw	r3,4(r2)
		p_bs_reg_mem[0].writable   = FALSE;
200014dc:	e0bf3317 	ldw	r2,-820(fp)
200014e0:	10000205 	stb	zero,8(r2)
		p_bs_reg_mem[0].write_func = NULL;
200014e4:	e0bf3317 	ldw	r2,-820(fp)
200014e8:	10000315 	stw	zero,12(r2)
		p_bs_reg_mem[0].write_arg  = 1;
200014ec:	e0bf3317 	ldw	r2,-820(fp)
200014f0:	00c00044 	movi	r3,1
200014f4:	10c00415 	stw	r3,16(r2)
		p_bs_reg_mem[0].readable   = TRUE;
200014f8:	e0bf3317 	ldw	r2,-820(fp)
200014fc:	00c00044 	movi	r3,1
20001500:	10c00505 	stb	r3,20(r2)
		p_bs_reg_mem[0].read_func  = read_mem_xml;
20001504:	e0ff3317 	ldw	r3,-820(fp)
20001508:	00880034 	movhi	r2,8192
2000150c:	1086f404 	addi	r2,r2,7120
20001510:	18800615 	stw	r2,24(r3)
		p_bs_reg_mem[0].read_arg   = 0;
20001514:	e0bf3317 	ldw	r2,-820(fp)
20001518:	10000715 	stw	zero,28(r2)

		// add bootstrap register
		ret = gev_add_bs_reg_mem(g_handle, p_bs_reg_mem, 1);
2000151c:	d0a01a17 	ldw	r2,-32664(gp)
20001520:	01800044 	movi	r6,1
20001524:	e17f3317 	ldw	r5,-820(fp)
20001528:	1009883a 	mov	r4,r2
2000152c:	000b1ac0 	call	2000b1ac <gev_add_bs_reg_mem>
20001530:	e0bf3415 	stw	r2,-816(fp)
		if (ret != GEV_ERR_SUCCESS)  { break; }
20001534:	e0bf3417 	ldw	r2,-816(fp)
20001538:	1001681e 	bne	r2,zero,20001adc <user_task_1+0x197c>

// ========================================================================== //

		// timestamp tick frequency-high unit : Hz
		ret = gev_set_bs_timestamp_tick_high(g_handle, GEV_TIMESTAMP_FREQ_HIGH_HZ);
2000153c:	d0a01a17 	ldw	r2,-32664(gp)
20001540:	000b883a 	mov	r5,zero
20001544:	1009883a 	mov	r4,r2
20001548:	000c6880 	call	2000c688 <gev_set_bs_timestamp_tick_high>
2000154c:	e0bf3415 	stw	r2,-816(fp)
		if (ret != GEV_ERR_SUCCESS)  { break; }
20001550:	e0bf3417 	ldw	r2,-816(fp)
20001554:	1001631e 	bne	r2,zero,20001ae4 <user_task_1+0x1984>

		// timestamp tick frequency-low unit : Hz
		ret = gev_set_bs_timestamp_tick_low(g_handle, GEV_TIMESTAMP_FREQ_LOW_HZ);
20001558:	d0a01a17 	ldw	r2,-32664(gp)
2000155c:	01417db4 	movhi	r5,1526
20001560:	29784004 	addi	r5,r5,-7936
20001564:	1009883a 	mov	r4,r2
20001568:	000c7600 	call	2000c760 <gev_set_bs_timestamp_tick_low>
2000156c:	e0bf3415 	stw	r2,-816(fp)
		if (ret != GEV_ERR_SUCCESS)  { break; }
20001570:	e0bf3417 	ldw	r2,-816(fp)
20001574:	10015d1e 	bne	r2,zero,20001aec <user_task_1+0x198c>

		// avalon-st clock frequency unit : Hz
		ret = gev_set_tx_clk_freq(g_handle, GEV_TX_CLK_FREQ);
20001578:	d0a01a17 	ldw	r2,-32664(gp)
2000157c:	01417db4 	movhi	r5,1526
20001580:	29784004 	addi	r5,r5,-7936
20001584:	1009883a 	mov	r4,r2
20001588:	000c83c0 	call	2000c83c <gev_set_tx_clk_freq>
2000158c:	e0bf3415 	stw	r2,-816(fp)
		if (ret != GEV_ERR_SUCCESS)  { break; }
20001590:	e0bf3417 	ldw	r2,-816(fp)
20001594:	1001571e 	bne	r2,zero,20001af4 <user_task_1+0x1994>

		// frame memory controller memory I/F frequency unit : Hz
		ret = gev_set_avm_clk_freq(g_handle, GEV_AVM_CLK_FREQ);
20001598:	d0a01a17 	ldw	r2,-32664(gp)
2000159c:	01417db4 	movhi	r5,1526
200015a0:	29784004 	addi	r5,r5,-7936
200015a4:	1009883a 	mov	r4,r2
200015a8:	000d0040 	call	2000d004 <gev_set_avm_clk_freq>
200015ac:	e0bf3415 	stw	r2,-816(fp)
		if (ret != GEV_ERR_SUCCESS)  { break; }
200015b0:	e0bf3417 	ldw	r2,-816(fp)
200015b4:	1001511e 	bne	r2,zero,20001afc <user_task_1+0x199c>

		// set ipconfig done callback functions
		ret = gev_reg_ipconf_done_func(g_handle, ipconf_done, 0);
200015b8:	d0a01a17 	ldw	r2,-32664(gp)
200015bc:	000d883a 	mov	r6,zero
200015c0:	01480034 	movhi	r5,8192
200015c4:	294ba804 	addi	r5,r5,11936
200015c8:	1009883a 	mov	r4,r2
200015cc:	000c8dc0 	call	2000c8dc <gev_reg_ipconf_done_func>
200015d0:	e0bf3415 	stw	r2,-816(fp)
		if (ret != GEV_ERR_SUCCESS)  { break; }
200015d4:	e0bf3417 	ldw	r2,-816(fp)
200015d8:	10014a1e 	bne	r2,zero,20001b04 <user_task_1+0x19a4>
		// set default chunk id
//		for (i = 0; i < 8; i++) {
//			ret = gev_set_bs_chunk_id(g_handle, i, i + 1);
//			if (ret != GEV_ERR_SUCCESS)  { break; }
//		}
		ret = gev_set_bs_chunk_id(g_handle, 0, 0x12344321);
200015dc:	d0a01a17 	ldw	r2,-32664(gp)
200015e0:	01848d34 	movhi	r6,4660
200015e4:	3190c844 	addi	r6,r6,17185
200015e8:	000b883a 	mov	r5,zero
200015ec:	1009883a 	mov	r4,r2
200015f0:	000c9980 	call	2000c998 <gev_set_bs_chunk_id>
200015f4:	e0bf3415 	stw	r2,-816(fp)
		if (ret != GEV_ERR_SUCCESS)  { break; }
200015f8:	e0bf3417 	ldw	r2,-816(fp)
200015fc:	1001431e 	bne	r2,zero,20001b0c <user_task_1+0x19ac>
		ret = gev_set_bs_chunk_id(g_handle, 1, 0x23455432);
20001600:	d0a01a17 	ldw	r2,-32664(gp)
20001604:	0188d174 	movhi	r6,9029
20001608:	31950c84 	addi	r6,r6,21554
2000160c:	01400044 	movi	r5,1
20001610:	1009883a 	mov	r4,r2
20001614:	000c9980 	call	2000c998 <gev_set_bs_chunk_id>
20001618:	e0bf3415 	stw	r2,-816(fp)
		if (ret != GEV_ERR_SUCCESS)  { break; }
2000161c:	e0bf3417 	ldw	r2,-816(fp)
20001620:	10013c1e 	bne	r2,zero,20001b14 <user_task_1+0x19b4>
		ret = gev_set_bs_chunk_id(g_handle, 2, 0x34566543);
20001624:	d0a01a17 	ldw	r2,-32664(gp)
20001628:	018d15b4 	movhi	r6,13398
2000162c:	319950c4 	addi	r6,r6,25923
20001630:	01400084 	movi	r5,2
20001634:	1009883a 	mov	r4,r2
20001638:	000c9980 	call	2000c998 <gev_set_bs_chunk_id>
2000163c:	e0bf3415 	stw	r2,-816(fp)
		if (ret != GEV_ERR_SUCCESS)  { break; }
20001640:	e0bf3417 	ldw	r2,-816(fp)
20001644:	1001351e 	bne	r2,zero,20001b1c <user_task_1+0x19bc>
		ret = gev_set_bs_chunk_id(g_handle, 3, 0x45677654);
20001648:	d0a01a17 	ldw	r2,-32664(gp)
2000164c:	019159f4 	movhi	r6,17767
20001650:	319d9504 	addi	r6,r6,30292
20001654:	014000c4 	movi	r5,3
20001658:	1009883a 	mov	r4,r2
2000165c:	000c9980 	call	2000c998 <gev_set_bs_chunk_id>
20001660:	e0bf3415 	stw	r2,-816(fp)
		if (ret != GEV_ERR_SUCCESS)  { break; }
20001664:	e0bf3417 	ldw	r2,-816(fp)
20001668:	10012e1e 	bne	r2,zero,20001b24 <user_task_1+0x19c4>
		ret = gev_set_bs_chunk_id(g_handle, 4, 0x56788765);
2000166c:	d0a01a17 	ldw	r2,-32664(gp)
20001670:	01959e74 	movhi	r6,22137
20001674:	31a1d944 	addi	r6,r6,-30875
20001678:	01400104 	movi	r5,4
2000167c:	1009883a 	mov	r4,r2
20001680:	000c9980 	call	2000c998 <gev_set_bs_chunk_id>
20001684:	e0bf3415 	stw	r2,-816(fp)
		if (ret != GEV_ERR_SUCCESS)  { break; }
20001688:	e0bf3417 	ldw	r2,-816(fp)
2000168c:	1001271e 	bne	r2,zero,20001b2c <user_task_1+0x19cc>
		ret = gev_set_bs_chunk_id(g_handle, 5, 0x67899876);
20001690:	d0a01a17 	ldw	r2,-32664(gp)
20001694:	0199e2b4 	movhi	r6,26506
20001698:	31a61d84 	addi	r6,r6,-26506
2000169c:	01400144 	movi	r5,5
200016a0:	1009883a 	mov	r4,r2
200016a4:	000c9980 	call	2000c998 <gev_set_bs_chunk_id>
200016a8:	e0bf3415 	stw	r2,-816(fp)
		if (ret != GEV_ERR_SUCCESS)  { break; }
200016ac:	e0bf3417 	ldw	r2,-816(fp)
200016b0:	1001201e 	bne	r2,zero,20001b34 <user_task_1+0x19d4>
		ret = gev_set_bs_chunk_id(g_handle, 6, 0x789AA987);
200016b4:	d0a01a17 	ldw	r2,-32664(gp)
200016b8:	019e26f4 	movhi	r6,30875
200016bc:	31aa61c4 	addi	r6,r6,-22137
200016c0:	01400184 	movi	r5,6
200016c4:	1009883a 	mov	r4,r2
200016c8:	000c9980 	call	2000c998 <gev_set_bs_chunk_id>
200016cc:	e0bf3415 	stw	r2,-816(fp)
		if (ret != GEV_ERR_SUCCESS)  { break; }
200016d0:	e0bf3417 	ldw	r2,-816(fp)
200016d4:	1001191e 	bne	r2,zero,20001b3c <user_task_1+0x19dc>
		ret = gev_set_bs_chunk_id(g_handle, 7, 0x89ABBA98);
200016d8:	d0a01a17 	ldw	r2,-32664(gp)
200016dc:	01a26b34 	movhi	r6,35244
200016e0:	31aea604 	addi	r6,r6,-17768
200016e4:	014001c4 	movi	r5,7
200016e8:	1009883a 	mov	r4,r2
200016ec:	000c9980 	call	2000c998 <gev_set_bs_chunk_id>
200016f0:	e0bf3415 	stw	r2,-816(fp)
		if (ret != GEV_ERR_SUCCESS)  { break; }
200016f4:	e0bf3417 	ldw	r2,-816(fp)
200016f8:	1001121e 	bne	r2,zero,20001b44 <user_task_1+0x19e4>

		// set default chunk length
		for (i = 0; i < 8; i++) {
200016fc:	e03f3015 	stw	zero,-832(fp)
20001700:	00000d06 	br	20001738 <user_task_1+0x15d8>
			ret = gev_set_bs_chunk_length(g_handle, i, 16);
20001704:	d0e01a17 	ldw	r3,-32664(gp)
20001708:	e0bf3017 	ldw	r2,-832(fp)
2000170c:	10803fcc 	andi	r2,r2,255
20001710:	01800404 	movi	r6,16
20001714:	100b883a 	mov	r5,r2
20001718:	1809883a 	mov	r4,r3
2000171c:	000ca680 	call	2000ca68 <gev_set_bs_chunk_length>
20001720:	e0bf3415 	stw	r2,-816(fp)
			if (ret != GEV_ERR_SUCCESS)  { break; }
20001724:	e0bf3417 	ldw	r2,-816(fp)
20001728:	1000071e 	bne	r2,zero,20001748 <user_task_1+0x15e8>
		if (ret != GEV_ERR_SUCCESS)  { break; }
		ret = gev_set_bs_chunk_id(g_handle, 7, 0x89ABBA98);
		if (ret != GEV_ERR_SUCCESS)  { break; }

		// set default chunk length
		for (i = 0; i < 8; i++) {
2000172c:	e0bf3017 	ldw	r2,-832(fp)
20001730:	10800044 	addi	r2,r2,1
20001734:	e0bf3015 	stw	r2,-832(fp)
20001738:	e0bf3017 	ldw	r2,-832(fp)
2000173c:	10800210 	cmplti	r2,r2,8
20001740:	103ff01e 	bne	r2,zero,20001704 <__alt_exception_stack_pointer+0xf0001704>
20001744:	00000106 	br	2000174c <user_task_1+0x15ec>
			ret = gev_set_bs_chunk_length(g_handle, i, 16);
			if (ret != GEV_ERR_SUCCESS)  { break; }
20001748:	0001883a 	nop
		}

		// action signals number
		ret = gev_set_bs_action_signals_num(g_handle, 8);
2000174c:	d0a01a17 	ldw	r2,-32664(gp)
20001750:	01400204 	movi	r5,8
20001754:	1009883a 	mov	r4,r2
20001758:	000ce040 	call	2000ce04 <gev_set_bs_action_signals_num>
2000175c:	e0bf3415 	stw	r2,-816(fp)
		if (ret != GEV_ERR_SUCCESS)  { break; }
20001760:	e0bf3417 	ldw	r2,-816(fp)
20001764:	1000f91e 	bne	r2,zero,20001b4c <user_task_1+0x19ec>

		// set multicast ip address
		ret = gev_set_multicast_ip(g_handle, 0xE0000181);
20001768:	d0a01a17 	ldw	r2,-32664(gp)
2000176c:	01780034 	movhi	r5,57344
20001770:	29406044 	addi	r5,r5,385
20001774:	1009883a 	mov	r4,r2
20001778:	000cc900 	call	2000cc90 <gev_set_multicast_ip>
2000177c:	e0bf3415 	stw	r2,-816(fp)
		if (ret != GEV_ERR_SUCCESS)  { break; }
20001780:	e0bf3417 	ldw	r2,-816(fp)
20001784:	1000f31e 	bne	r2,zero,20001b54 <user_task_1+0x19f4>

		// set multicast ttl
		ret = gev_set_multicast_ttl(g_handle, 1);
20001788:	d0a01a17 	ldw	r2,-32664(gp)
2000178c:	01400044 	movi	r5,1
20001790:	1009883a 	mov	r4,r2
20001794:	000cd5c0 	call	2000cd5c <gev_set_multicast_ttl>
20001798:	e0bf3415 	stw	r2,-816(fp)
		if (ret != GEV_ERR_SUCCESS)  { break; }
2000179c:	e0bf3417 	ldw	r2,-816(fp)
200017a0:	1000ee1e 	bne	r2,zero,20001b5c <user_task_1+0x19fc>

#if defined(PTP_SUPPORT)
		init_ptp_param.priority1                    = 128;      // it is invalid if PTP_SLAVE_ONLY is defined
200017a4:	00bfe004 	movi	r2,-128
200017a8:	e0bf5905 	stb	r2,-668(fp)
		init_ptp_param.priority2                    = 128;      // it is invalid if PTP_SLAVE_ONLY is defined
200017ac:	00bfe004 	movi	r2,-128
200017b0:	e0bf5945 	stb	r2,-667(fp)
		init_ptp_param.domain_number                = 0;
200017b4:	e03f5985 	stb	zero,-666(fp)
		init_ptp_param.slave_only                   = FALSE;    // it is invalid if PTP_SLAVE_ONLY is defined
200017b8:	e03f59c5 	stb	zero,-665(fp)
		init_ptp_param.log_announce_interval        = 1;        // it is invalid if PTP_SLAVE_ONLY is defined
200017bc:	00800044 	movi	r2,1
200017c0:	e0bf5a05 	stb	r2,-664(fp)
		init_ptp_param.log_sync_interval            = 0;        // it is invalid if PTP_SLAVE_ONLY is defined
200017c4:	e03f5a45 	stb	zero,-663(fp)
		init_ptp_param.log_min_delay_req_interval   = 0;        // it is invalid if PTP_SLAVE_ONLY is defined
200017c8:	e03f5a85 	stb	zero,-662(fp)
		init_ptp_param.announce_receipt_timeout     = 3;        // it is invalid if PTP_SLAVE_ONLY is defined
200017cc:	008000c4 	movi	r2,3
200017d0:	e0bf5ac5 	stb	r2,-661(fp)

		// set ptp initial value setting
		ret = gev_set_ptp_init_val(g_handle, init_ptp_param);
200017d4:	d0a01a17 	ldw	r2,-32664(gp)
200017d8:	e17f5917 	ldw	r5,-668(fp)
200017dc:	e1bf5a17 	ldw	r6,-664(fp)
200017e0:	1009883a 	mov	r4,r2
200017e4:	000d0a40 	call	2000d0a4 <gev_set_ptp_init_val>
200017e8:	e0bf3415 	stw	r2,-816(fp)
		if (ret != GEV_ERR_SUCCESS)  { break; }
200017ec:	e0bf3417 	ldw	r2,-816(fp)
200017f0:	1000dc1e 	bne	r2,zero,20001b64 <user_task_1+0x1a04>

		g_ptp_param.priority1                   = init_ptp_param.priority1;
200017f4:	e0bf5903 	ldbu	r2,-668(fp)
200017f8:	d0a01505 	stb	r2,-32684(gp)
		g_ptp_param.priority2                   = init_ptp_param.priority2;
200017fc:	e0bf5943 	ldbu	r2,-667(fp)
20001800:	d0a01545 	stb	r2,-32683(gp)
		g_ptp_param.domain_number               = init_ptp_param.domain_number;
20001804:	e0bf5983 	ldbu	r2,-666(fp)
20001808:	d0a01585 	stb	r2,-32682(gp)
		g_ptp_param.slave_only                  = init_ptp_param.slave_only;
2000180c:	e0bf59c3 	ldbu	r2,-665(fp)
20001810:	d0a015c5 	stb	r2,-32681(gp)
		g_ptp_param.log_announce_interval       = init_ptp_param.log_announce_interval;
20001814:	e0bf5a03 	ldbu	r2,-664(fp)
20001818:	d0a01605 	stb	r2,-32680(gp)
		g_ptp_param.log_sync_interval           = init_ptp_param.log_sync_interval;
2000181c:	e0bf5a43 	ldbu	r2,-663(fp)
20001820:	d0a01645 	stb	r2,-32679(gp)
		g_ptp_param.log_min_delay_req_interval  = init_ptp_param.log_min_delay_req_interval;
20001824:	e0bf5a83 	ldbu	r2,-662(fp)
20001828:	d0a01685 	stb	r2,-32678(gp)
		g_ptp_param.announce_receipt_timeout    = init_ptp_param.announce_receipt_timeout;
2000182c:	e0bf5ac3 	ldbu	r2,-661(fp)
20001830:	d0a016c5 	stb	r2,-32677(gp)

		// set test clock interval 1msec
		/* IOWR_ALTERA_AVALON_PIO_DATA(GEV_PIO_INTERVAL_BASE, 1000000); */

		// set GevSCSPPacketSize initial value
		ret = gev_set_gev_scps_packet_size(g_handle, 0x1000);
20001834:	d0a01a17 	ldw	r2,-32664(gp)
20001838:	01440004 	movi	r5,4096
2000183c:	1009883a 	mov	r4,r2
20001840:	000d5100 	call	2000d510 <gev_set_gev_scps_packet_size>
20001844:	e0bf3415 	stw	r2,-816(fp)
		if (ret != GEV_ERR_SUCCESS)  { break; }
20001848:	e0bf3417 	ldw	r2,-816(fp)
2000184c:	1000c71e 	bne	r2,zero,20001b6c <user_task_1+0x1a0c>

		// set Stream Channel Packet Delay
		/* ret = gev_set_scpd(g_handle, 0x1000); */
		ret = gev_set_scpd(g_handle, 0);
20001850:	d0a01a17 	ldw	r2,-32664(gp)
20001854:	000b883a 	mov	r5,zero
20001858:	1009883a 	mov	r4,r2
2000185c:	000d6580 	call	2000d658 <gev_set_scpd>
20001860:	e0bf3415 	stw	r2,-816(fp)
		if (ret != GEV_ERR_SUCCESS)  { break; }
20001864:	e0bf3417 	ldw	r2,-816(fp)
20001868:	1000c21e 	bne	r2,zero,20001b74 <user_task_1+0x1a14>

		// checking process if mcda, scda exist on the network
		/* ret = gev_mcda_scda_check_process(g_handle, TRUE); */
		ret = gev_mcda_scda_check_process(g_handle, FALSE);
2000186c:	d0a01a17 	ldw	r2,-32664(gp)
20001870:	000b883a 	mov	r5,zero
20001874:	1009883a 	mov	r4,r2
20001878:	000d6dc0 	call	2000d6dc <gev_mcda_scda_check_process>
2000187c:	e0bf3415 	stw	r2,-816(fp)
		if (ret != GEV_ERR_SUCCESS)  { break; }
20001880:	e0bf3417 	ldw	r2,-816(fp)
20001884:	1000bd1e 	bne	r2,zero,20001b7c <user_task_1+0x1a1c>

		// accepting broadcast writereg command
		g_accept_broadcast_writereg = FALSE;
20001888:	d0201445 	stb	zero,-32687(gp)
		ret = gev_accept_broadcast_writereg(g_handle, g_accept_broadcast_writereg);
2000188c:	d0a01a17 	ldw	r2,-32664(gp)
20001890:	d0e01443 	ldbu	r3,-32687(gp)
20001894:	18c03fcc 	andi	r3,r3,255
20001898:	180b883a 	mov	r5,r3
2000189c:	1009883a 	mov	r4,r2
200018a0:	000d7680 	call	2000d768 <gev_accept_broadcast_writereg>
200018a4:	e0bf3415 	stw	r2,-816(fp)
		if (ret != GEV_ERR_SUCCESS)  { break; }
200018a8:	e0bf3417 	ldw	r2,-816(fp)
200018ac:	1000b51e 	bne	r2,zero,20001b84 <user_task_1+0x1a24>

		ret = gev_set_ref_timestamp_param(g_handle, FALSE);
200018b0:	d0a01a17 	ldw	r2,-32664(gp)
200018b4:	000b883a 	mov	r5,zero
200018b8:	1009883a 	mov	r4,r2
200018bc:	000cedc0 	call	2000cedc <gev_set_ref_timestamp_param>
200018c0:	e0bf3415 	stw	r2,-816(fp)
		if (ret != GEV_ERR_SUCCESS)  { break; }
200018c4:	e0bf3417 	ldw	r2,-816(fp)
200018c8:	1000b01e 	bne	r2,zero,20001b8c <user_task_1+0x1a2c>

		// DHCP Discover/Request Option enable (enabled as "Parameter Request List")
		ret = gev_dhcp_para_req_list_opt(g_handle, TRUE);
200018cc:	d0a01a17 	ldw	r2,-32664(gp)
200018d0:	01400044 	movi	r5,1
200018d4:	1009883a 	mov	r4,r2
200018d8:	000d7f40 	call	2000d7f4 <gev_dhcp_para_req_list_opt>
200018dc:	e0bf3415 	stw	r2,-816(fp)
		/* ret = gev_dhcp_para_req_list_opt(g_handle, FALSE); */
		if (ret != GEV_ERR_SUCCESS)  { break; }
200018e0:	e0bf3417 	ldw	r2,-816(fp)
200018e4:	1000ab1e 	bne	r2,zero,20001b94 <user_task_1+0x1a34>

		// Behavior if "0" is written to LLA bit of Network Interface Configration register
		ret = gev_accept_lla_false_access(g_handle, TRUE);      // Return "Success"
200018e8:	d0a01a17 	ldw	r2,-32664(gp)
200018ec:	01400044 	movi	r5,1
200018f0:	1009883a 	mov	r4,r2
200018f4:	000d8800 	call	2000d880 <gev_accept_lla_false_access>
200018f8:	e0bf3415 	stw	r2,-816(fp)
		/* ret = gev_accept_lla_false_access(g_handle, FALSE);     // Return "Invalid Parameter" */
		if (ret != GEV_ERR_SUCCESS)  { break; }
200018fc:	e0bf3417 	ldw	r2,-816(fp)
20001900:	1000a61e 	bne	r2,zero,20001b9c <user_task_1+0x1a3c>

		// init peripherals
		width_write(0, &(g_data_param.width));
20001904:	01480334 	movhi	r5,8204
20001908:	296b4604 	addi	r5,r5,-21224
2000190c:	0009883a 	mov	r4,zero
20001910:	00026280 	call	20002628 <width_write>
		height_write(0, &(g_data_param.height));
20001914:	01480334 	movhi	r5,8204
20001918:	296b4704 	addi	r5,r5,-21220
2000191c:	0009883a 	mov	r4,zero
20001920:	00026a00 	call	200026a0 <height_write>
		width_max_write(0, &(g_data_param.sensor_width));
20001924:	01480334 	movhi	r5,8204
20001928:	296b4404 	addi	r5,r5,-21232
2000192c:	0009883a 	mov	r4,zero
20001930:	00027180 	call	20002718 <width_max_write>
		height_max_write(0, &(g_data_param.sensor_height));
20001934:	01480334 	movhi	r5,8204
20001938:	296b4504 	addi	r5,r5,-21228
2000193c:	0009883a 	mov	r4,zero
20001940:	00027f40 	call	200027f4 <height_max_write>
		offset_x_write(0, &(g_data_param.offset_x));
20001944:	01480334 	movhi	r5,8204
20001948:	296b4804 	addi	r5,r5,-21216
2000194c:	0009883a 	mov	r4,zero
20001950:	00028d00 	call	200028d0 <offset_x_write>
		offset_y_write(0, &(g_data_param.offset_y));
20001954:	01480334 	movhi	r5,8204
20001958:	296b4904 	addi	r5,r5,-21212
2000195c:	0009883a 	mov	r4,zero
20001960:	00029480 	call	20002948 <offset_y_write>
		pixel_format_write(0, &(g_data_param.pixel_format));
20001964:	01480334 	movhi	r5,8204
20001968:	296b4a04 	addi	r5,r5,-21208
2000196c:	0009883a 	mov	r4,zero
20001970:	00029c00 	call	200029c0 <pixel_format_write>
		payload_type_write(0, &(g_data_param.payload_type));
20001974:	01480334 	movhi	r5,8204
20001978:	296b4b04 	addi	r5,r5,-21204
2000197c:	0009883a 	mov	r4,zero
20001980:	0002a380 	call	20002a38 <payload_type_write>

		// run GEV engine
		ret = gev_run(g_handle);
20001984:	d0a01a17 	ldw	r2,-32664(gp)
20001988:	1009883a 	mov	r4,r2
2000198c:	00071900 	call	20007190 <gev_run>
20001990:	e0bf3415 	stw	r2,-816(fp)
		if (ret) { printf("Exit gev_run : return = 0x%x\r\n", ret); }
20001994:	e0bf3417 	ldw	r2,-816(fp)
20001998:	10000526 	beq	r2,zero,200019b0 <user_task_1+0x1850>
2000199c:	e17f3417 	ldw	r5,-816(fp)
200019a0:	01080174 	movhi	r4,8197
200019a4:	21206d04 	addi	r4,r4,-32332
200019a8:	003b0640 	call	2003b064 <printf>
200019ac:	00000306 	br	200019bc <user_task_1+0x185c>
		else { printf("GEV engine has stopped! please reset system \r\n"); }
200019b0:	01080174 	movhi	r4,8197
200019b4:	21207504 	addi	r4,r4,-32300
200019b8:	003b1600 	call	2003b160 <puts>

		// close GEV engine
		gev_close(g_handle);
200019bc:	d0a01a17 	ldw	r2,-32664(gp)
200019c0:	1009883a 	mov	r4,r2
200019c4:	00070440 	call	20007044 <gev_close>
	}
200019c8:	003a5406 	br	2000031c <__alt_exception_stack_pointer+0xf000031c>
			g_handle = gev_open(GEV_VERSION_12, hw_ip_info, image_param);
		}

		// get library version
		ret = gev_get_version(g_handle, &major, &minor, &sub);
		if (ret != GEV_ERR_SUCCESS)  { break; }
200019cc:	0001883a 	nop
200019d0:	00007306 	br	20001ba0 <user_task_1+0x1a40>
			printf("XML file size: %d bytes \r\n", i);
		}

		// set Bootstrap register callback functions
		ret = gev_reg_bs_reg_width_write_func(g_handle, width_write, 0);
		if (ret != GEV_ERR_SUCCESS)  { break; }
200019d4:	0001883a 	nop
200019d8:	00007106 	br	20001ba0 <user_task_1+0x1a40>
		ret = gev_reg_bs_reg_height_write_func(g_handle, height_write, 0);
		if (ret != GEV_ERR_SUCCESS)  { break; }
200019dc:	0001883a 	nop
200019e0:	00006f06 	br	20001ba0 <user_task_1+0x1a40>
		ret = gev_reg_bs_reg_ofstx_write_func(g_handle, offset_x_write, 0);
		if (ret != GEV_ERR_SUCCESS)  { break; }
200019e4:	0001883a 	nop
200019e8:	00006d06 	br	20001ba0 <user_task_1+0x1a40>
		ret = gev_reg_bs_reg_ofsty_write_func(g_handle, offset_y_write, 0);
		if (ret != GEV_ERR_SUCCESS)  { break; }
200019ec:	0001883a 	nop
200019f0:	00006b06 	br	20001ba0 <user_task_1+0x1a40>
		ret = gev_reg_bs_reg_acquisition_start_func(g_handle, acquisition_start, 0);
		if (ret != GEV_ERR_SUCCESS)  { break; }
200019f4:	0001883a 	nop
200019f8:	00006906 	br	20001ba0 <user_task_1+0x1a40>
		ret = gev_reg_bs_reg_acquisition_stop_func(g_handle, acquisition_stop, 0);
		if (ret != GEV_ERR_SUCCESS)  { break; }
200019fc:	0001883a 	nop
20001a00:	00006706 	br	20001ba0 <user_task_1+0x1a40>
		ret = gev_reg_bs_reg_payload_type_write_func(g_handle, payload_type_write, 0);
		if (ret != GEV_ERR_SUCCESS)  { break; }
20001a04:	0001883a 	nop
20001a08:	00006506 	br	20001ba0 <user_task_1+0x1a40>
		ret = gev_reg_bs_reg_pixel_fromat_write_func(g_handle, pixel_format_write, 0);
		if (ret != GEV_ERR_SUCCESS)  { break; }
20001a0c:	0001883a 	nop
20001a10:	00006306 	br	20001ba0 <user_task_1+0x1a40>
		ret = gev_reg_bs_reg_field_count_write_func(g_handle, field_count_write, 0);
		if (ret != GEV_ERR_SUCCESS)  { break; }
20001a14:	0001883a 	nop
20001a18:	00006106 	br	20001ba0 <user_task_1+0x1a40>
		flash_mem_offset_adder.persistent_gateway_0         = FLASH_OFFSET_PERSISTENT_GATEWAY_0;
		flash_mem_offset_adder.gvcp_configuration           = FLASH_OFFSET_GVCP_CONFIGURATION;

#if 1 // Non-volatile memory supported
		ret = gev_set_flash_param(g_handle, TRUE, SF_CTR_AVL_MEM_BASE, SF_CTR_AVL_MEM_NAME, &flash_func, &flash_mem_offset_adder);
		if (ret != GEV_ERR_SUCCESS)  { break; }
20001a1c:	0001883a 	nop
20001a20:	00005f06 	br	20001ba0 <user_task_1+0x1a40>
		// set bootstrap Network Interface Capability register
		ret = gev_set_bs_ntwk_if_cap(g_handle,
					 GVBS_IP_CONFIGURATION_PERSISTENT |
					 GVBS_IP_CONFIGURATION_DHCP       |
					 GVBS_IP_CONFIGURATION_LLA);
		if (ret != GEV_ERR_SUCCESS)  { break; }
20001a24:	0001883a 	nop
20001a28:	00005d06 	br	20001ba0 <user_task_1+0x1a40>
		if (g_test_version == GEV_VERSION_20) {
			// set bootstrap device mode register
			ret = gev_set_bs_dev_mode(g_handle,
						 (1 << GVBS_DEVICE_MODE_ENDIAN_POS) |
						 GVBS_DEVICE_MODE_CHARACTER_SET_UTF8);  // because validation tool does not support devices which use ASCIIcharacter sets
			if (ret != GEV_ERR_SUCCESS)  { break; }
20001a2c:	0001883a 	nop
20001a30:	00005b06 	br	20001ba0 <user_task_1+0x1a40>

#if defined(PTP_SUPPORT)
		if (g_test_version == GEV_VERSION_20) {
			// GVSP capability register
			ret = gev_set_bs_gvsp_cap(g_handle, GVBS_GVSP_CAPABILITY_SUPPORT_SCSP | GVBS_GVSP_CAPABILITY_SUPPORT_16BIT);
			if (ret != GEV_ERR_SUCCESS)  { break; }
20001a34:	0001883a 	nop
20001a38:	00005906 	br	20001ba0 <user_task_1+0x1a40>
									  GVBS_GVCP_CAPABILITY_EVENT_DATA |
									  GVBS_GVCP_CAPABILITY_EVENT |
									  GVBS_GVCP_CAPABILITY_PACKET_RESEND |
									  GVBS_GVCP_CAPABILITY_WRITE_MEMORY |
									  GVBS_GVCP_CAPABILITY_CONCATENATION);
			if (ret != GEV_ERR_SUCCESS)  { break; }
20001a3c:	0001883a 	nop
20001a40:	00005706 	br	20001ba0 <user_task_1+0x1a40>
									  GVBS_GVCP_CAPABILITY_EVENT_DATA |
									  GVBS_GVCP_CAPABILITY_EVENT |
									  GVBS_GVCP_CAPABILITY_PACKET_RESEND |
									  GVBS_GVCP_CAPABILITY_WRITE_MEMORY |
									  GVBS_GVCP_CAPABILITY_CONCATENATION);
			if (ret != GEV_ERR_SUCCESS)  { break; }
20001a44:	0001883a 	nop
20001a48:	00005506 	br	20001ba0 <user_task_1+0x1a40>

			// stream channel capability register
			ret = gev_set_bs_strm_ch_cap(g_handle, GVBS_SCC_EXTENDED_CHUNK_DATA | GVBS_SCC_BIG_ENDIAN);
			if (ret != GEV_ERR_SUCCESS)  { break; }
20001a4c:	0001883a 	nop
20001a50:	00005306 	br	20001ba0 <user_task_1+0x1a40>
		manifest_table_data.entry[0].entry_bit_field.schema_minor_version = 1;

		manifest_table_data.entry[0].url_register_address = 0x00000200;

		ret = gev_set_bs_mnfest_tbl(g_handle, (unsigned char *)&manifest_table_data, sizeof(manifest_table_data));
		if (ret != GEV_ERR_SUCCESS)  { break; }
20001a54:	0001883a 	nop
20001a58:	00005106 	br	20001ba0 <user_task_1+0x1a40>

		if (g_test_version == GEV_VERSION_20) {
			// first URL
			ret = gev_set_bs_fst_url(g_handle, (unsigned char *)g_first_url_v20, strlen((const char *)g_first_url_v20));
			if (ret != GEV_ERR_SUCCESS)  { break; }
20001a5c:	0001883a 	nop
20001a60:	00004f06 	br	20001ba0 <user_task_1+0x1a40>
			if (ret != GEV_ERR_SUCCESS)  { break; }
		}
		else  {
			// first URL
			ret = gev_set_bs_fst_url(g_handle, (unsigned char *)g_first_url_v12, strlen((const char *)g_first_url_v12));
			if (ret != GEV_ERR_SUCCESS)  { break; }
20001a64:	0001883a 	nop
20001a68:	00004d06 	br	20001ba0 <user_task_1+0x1a40>

			// second URL
			ret = gev_set_bs_scnd_url(g_handle, (unsigned char *)g_second_url_v12, strlen((const char *)g_second_url_v12));
			if (ret != GEV_ERR_SUCCESS)  { break; }
20001a6c:	0001883a 	nop
20001a70:	00004b06 	br	20001ba0 <user_task_1+0x1a40>
		}

		// manufacturer name
		ret = gev_set_bs_mnft_name(g_handle, manufacture_name, strlen((const char *)manufacture_name));
		if (ret != GEV_ERR_SUCCESS)  { break; }
20001a74:	0001883a 	nop
20001a78:	00004906 	br	20001ba0 <user_task_1+0x1a40>

		// model name
		ret = gev_set_bs_model_name(g_handle, model_name, strlen((const char *)model_name));
		if (ret != GEV_ERR_SUCCESS)  { break; }
20001a7c:	0001883a 	nop
20001a80:	00004706 	br	20001ba0 <user_task_1+0x1a40>

		// device version
		ret = gev_set_bs_dev_ver(g_handle, device_version, strlen((const char *)device_version));
		if (ret != GEV_ERR_SUCCESS)  { break; }
20001a84:	0001883a 	nop
20001a88:	00004506 	br	20001ba0 <user_task_1+0x1a40>

		// manufacturer informations
		ret = gev_set_bs_mnft_info(g_handle, manufacture_info, strlen((const char *)manufacture_info));
		if (ret != GEV_ERR_SUCCESS)  { break; }
20001a8c:	0001883a 	nop
20001a90:	00004306 	br	20001ba0 <user_task_1+0x1a40>

		// serial number
		ret = gev_set_bs_seri_num(g_handle, serial_number, 15);
		if (ret != GEV_ERR_SUCCESS)  { break; }
20001a94:	0001883a 	nop
20001a98:	00004106 	br	20001ba0 <user_task_1+0x1a40>

		// pending timeout unit : ms
		ret = gev_set_bs_pend_tmout(g_handle, 3000);
		if (ret != GEV_ERR_SUCCESS)  { break; }
20001a9c:	0001883a 	nop
20001aa0:	00003f06 	br	20001ba0 <user_task_1+0x1a40>

		// message channel source port
		ret = gev_set_bs_msg_ch_src_port(g_handle, 49152);
		if (ret != GEV_ERR_SUCCESS)  { break; }
20001aa4:	0001883a 	nop
20001aa8:	00003d06 	br	20001ba0 <user_task_1+0x1a40>

		// stream channel source port
		ret = gev_set_bs_strm_ch_src_port(g_handle, 49153);
		if (ret != GEV_ERR_SUCCESS)  { break; }
20001aac:	0001883a 	nop
20001ab0:	00003b06 	br	20001ba0 <user_task_1+0x1a40>
		ret = gev_set_frm_mem_param(g_handle, frm_mem_rng_start_addr, frm_mem_rng_size, &frm_mem_param);
		if (ret != GEV_ERR_SUCCESS) { gev_close(g_handle); break; }

		// set user extended bootstrap register
		ret = gev_set_ext_bs_reg_num(g_handle, 0x1000, 0x10, 0x100);
		if (ret != GEV_ERR_SUCCESS)  { break; }
20001ab4:	0001883a 	nop
20001ab8:	00003906 	br	20001ba0 <user_task_1+0x1a40>
		p_bs_reg[1].read_func  = height_max_read;
		p_bs_reg[1].read_arg   = 0;

		// add bootstrap register
		ret = gev_add_bs_reg(g_handle, p_bs_reg, 2);
		if (ret != GEV_ERR_SUCCESS)  { break; }
20001abc:	0001883a 	nop
20001ac0:	00003706 	br	20001ba0 <user_task_1+0x1a40>
		p_bs_reg[0].read_func  = read_timestamp_sel;
		p_bs_reg[0].read_arg   = 0;

		// add bootstrap register
		ret = gev_add_bs_reg(g_handle, p_bs_reg, 1);
		if (ret != GEV_ERR_SUCCESS)  { break; }
20001ac4:	0001883a 	nop
20001ac8:	00003506 	br	20001ba0 <user_task_1+0x1a40>
		p_bs_reg[7].read_func  = read_ptp_set_announce_receipt_timeout;
		p_bs_reg[7].read_arg   = 0;

		// add bootstrap register
		ret = gev_add_bs_reg(g_handle, p_bs_reg, 8);
		if (ret != GEV_ERR_SUCCESS)  { break; }
20001acc:	0001883a 	nop
20001ad0:	00003306 	br	20001ba0 <user_task_1+0x1a40>
		p_bs_reg[4].read_func  = NULL;
		p_bs_reg[4].read_arg   = 0;

		// add bootstrap register
		ret = gev_add_bs_reg(g_handle, p_bs_reg, 5);
		if (ret != GEV_ERR_SUCCESS)  { break; }
20001ad4:	0001883a 	nop
20001ad8:	00003106 	br	20001ba0 <user_task_1+0x1a40>
		p_bs_reg_mem[0].read_func  = read_mem_xml;
		p_bs_reg_mem[0].read_arg   = 0;

		// add bootstrap register
		ret = gev_add_bs_reg_mem(g_handle, p_bs_reg_mem, 1);
		if (ret != GEV_ERR_SUCCESS)  { break; }
20001adc:	0001883a 	nop
20001ae0:	00002f06 	br	20001ba0 <user_task_1+0x1a40>

// ========================================================================== //

		// timestamp tick frequency-high unit : Hz
		ret = gev_set_bs_timestamp_tick_high(g_handle, GEV_TIMESTAMP_FREQ_HIGH_HZ);
		if (ret != GEV_ERR_SUCCESS)  { break; }
20001ae4:	0001883a 	nop
20001ae8:	00002d06 	br	20001ba0 <user_task_1+0x1a40>

		// timestamp tick frequency-low unit : Hz
		ret = gev_set_bs_timestamp_tick_low(g_handle, GEV_TIMESTAMP_FREQ_LOW_HZ);
		if (ret != GEV_ERR_SUCCESS)  { break; }
20001aec:	0001883a 	nop
20001af0:	00002b06 	br	20001ba0 <user_task_1+0x1a40>

		// avalon-st clock frequency unit : Hz
		ret = gev_set_tx_clk_freq(g_handle, GEV_TX_CLK_FREQ);
		if (ret != GEV_ERR_SUCCESS)  { break; }
20001af4:	0001883a 	nop
20001af8:	00002906 	br	20001ba0 <user_task_1+0x1a40>

		// frame memory controller memory I/F frequency unit : Hz
		ret = gev_set_avm_clk_freq(g_handle, GEV_AVM_CLK_FREQ);
		if (ret != GEV_ERR_SUCCESS)  { break; }
20001afc:	0001883a 	nop
20001b00:	00002706 	br	20001ba0 <user_task_1+0x1a40>

		// set ipconfig done callback functions
		ret = gev_reg_ipconf_done_func(g_handle, ipconf_done, 0);
		if (ret != GEV_ERR_SUCCESS)  { break; }
20001b04:	0001883a 	nop
20001b08:	00002506 	br	20001ba0 <user_task_1+0x1a40>
//		for (i = 0; i < 8; i++) {
//			ret = gev_set_bs_chunk_id(g_handle, i, i + 1);
//			if (ret != GEV_ERR_SUCCESS)  { break; }
//		}
		ret = gev_set_bs_chunk_id(g_handle, 0, 0x12344321);
		if (ret != GEV_ERR_SUCCESS)  { break; }
20001b0c:	0001883a 	nop
20001b10:	00002306 	br	20001ba0 <user_task_1+0x1a40>
		ret = gev_set_bs_chunk_id(g_handle, 1, 0x23455432);
		if (ret != GEV_ERR_SUCCESS)  { break; }
20001b14:	0001883a 	nop
20001b18:	00002106 	br	20001ba0 <user_task_1+0x1a40>
		ret = gev_set_bs_chunk_id(g_handle, 2, 0x34566543);
		if (ret != GEV_ERR_SUCCESS)  { break; }
20001b1c:	0001883a 	nop
20001b20:	00001f06 	br	20001ba0 <user_task_1+0x1a40>
		ret = gev_set_bs_chunk_id(g_handle, 3, 0x45677654);
		if (ret != GEV_ERR_SUCCESS)  { break; }
20001b24:	0001883a 	nop
20001b28:	00001d06 	br	20001ba0 <user_task_1+0x1a40>
		ret = gev_set_bs_chunk_id(g_handle, 4, 0x56788765);
		if (ret != GEV_ERR_SUCCESS)  { break; }
20001b2c:	0001883a 	nop
20001b30:	00001b06 	br	20001ba0 <user_task_1+0x1a40>
		ret = gev_set_bs_chunk_id(g_handle, 5, 0x67899876);
		if (ret != GEV_ERR_SUCCESS)  { break; }
20001b34:	0001883a 	nop
20001b38:	00001906 	br	20001ba0 <user_task_1+0x1a40>
		ret = gev_set_bs_chunk_id(g_handle, 6, 0x789AA987);
		if (ret != GEV_ERR_SUCCESS)  { break; }
20001b3c:	0001883a 	nop
20001b40:	00001706 	br	20001ba0 <user_task_1+0x1a40>
		ret = gev_set_bs_chunk_id(g_handle, 7, 0x89ABBA98);
		if (ret != GEV_ERR_SUCCESS)  { break; }
20001b44:	0001883a 	nop
20001b48:	00001506 	br	20001ba0 <user_task_1+0x1a40>
			if (ret != GEV_ERR_SUCCESS)  { break; }
		}

		// action signals number
		ret = gev_set_bs_action_signals_num(g_handle, 8);
		if (ret != GEV_ERR_SUCCESS)  { break; }
20001b4c:	0001883a 	nop
20001b50:	00001306 	br	20001ba0 <user_task_1+0x1a40>

		// set multicast ip address
		ret = gev_set_multicast_ip(g_handle, 0xE0000181);
		if (ret != GEV_ERR_SUCCESS)  { break; }
20001b54:	0001883a 	nop
20001b58:	00001106 	br	20001ba0 <user_task_1+0x1a40>

		// set multicast ttl
		ret = gev_set_multicast_ttl(g_handle, 1);
		if (ret != GEV_ERR_SUCCESS)  { break; }
20001b5c:	0001883a 	nop
20001b60:	00000f06 	br	20001ba0 <user_task_1+0x1a40>
		init_ptp_param.log_min_delay_req_interval   = 0;        // it is invalid if PTP_SLAVE_ONLY is defined
		init_ptp_param.announce_receipt_timeout     = 3;        // it is invalid if PTP_SLAVE_ONLY is defined

		// set ptp initial value setting
		ret = gev_set_ptp_init_val(g_handle, init_ptp_param);
		if (ret != GEV_ERR_SUCCESS)  { break; }
20001b64:	0001883a 	nop
20001b68:	00000d06 	br	20001ba0 <user_task_1+0x1a40>
		// set test clock interval 1msec
		/* IOWR_ALTERA_AVALON_PIO_DATA(GEV_PIO_INTERVAL_BASE, 1000000); */

		// set GevSCSPPacketSize initial value
		ret = gev_set_gev_scps_packet_size(g_handle, 0x1000);
		if (ret != GEV_ERR_SUCCESS)  { break; }
20001b6c:	0001883a 	nop
20001b70:	00000b06 	br	20001ba0 <user_task_1+0x1a40>

		// set Stream Channel Packet Delay
		/* ret = gev_set_scpd(g_handle, 0x1000); */
		ret = gev_set_scpd(g_handle, 0);
		if (ret != GEV_ERR_SUCCESS)  { break; }
20001b74:	0001883a 	nop
20001b78:	00000906 	br	20001ba0 <user_task_1+0x1a40>

		// checking process if mcda, scda exist on the network
		/* ret = gev_mcda_scda_check_process(g_handle, TRUE); */
		ret = gev_mcda_scda_check_process(g_handle, FALSE);
		if (ret != GEV_ERR_SUCCESS)  { break; }
20001b7c:	0001883a 	nop
20001b80:	00000706 	br	20001ba0 <user_task_1+0x1a40>

		// accepting broadcast writereg command
		g_accept_broadcast_writereg = FALSE;
		ret = gev_accept_broadcast_writereg(g_handle, g_accept_broadcast_writereg);
		if (ret != GEV_ERR_SUCCESS)  { break; }
20001b84:	0001883a 	nop
20001b88:	00000506 	br	20001ba0 <user_task_1+0x1a40>

		ret = gev_set_ref_timestamp_param(g_handle, FALSE);
		if (ret != GEV_ERR_SUCCESS)  { break; }
20001b8c:	0001883a 	nop
20001b90:	00000306 	br	20001ba0 <user_task_1+0x1a40>

		// DHCP Discover/Request Option enable (enabled as "Parameter Request List")
		ret = gev_dhcp_para_req_list_opt(g_handle, TRUE);
		/* ret = gev_dhcp_para_req_list_opt(g_handle, FALSE); */
		if (ret != GEV_ERR_SUCCESS)  { break; }
20001b94:	0001883a 	nop
20001b98:	00000106 	br	20001ba0 <user_task_1+0x1a40>

		// Behavior if "0" is written to LLA bit of Network Interface Configration register
		ret = gev_accept_lla_false_access(g_handle, TRUE);      // Return "Success"
		/* ret = gev_accept_lla_false_access(g_handle, FALSE);     // Return "Invalid Parameter" */
		if (ret != GEV_ERR_SUCCESS)  { break; }
20001b9c:	0001883a 	nop

		// close GEV engine
		gev_close(g_handle);
	}

	free(p_bs_reg);
20001ba0:	e13f3217 	ldw	r4,-824(fp)
20001ba4:	003a5280 	call	2003a528 <free>

	while (1) {

	}
20001ba8:	003fff06 	br	20001ba8 <__alt_exception_stack_pointer+0xf0001ba8>

20001bac <user_task_2>:
//! @brief User task 2
//
//! @return None
//------------------------------------------------------------------------------
void user_task_2(void)
{
20001bac:	defffe04 	addi	sp,sp,-8
20001bb0:	dfc00115 	stw	ra,4(sp)
20001bb4:	df000015 	stw	fp,0(sp)
20001bb8:	d839883a 	mov	fp,sp
	while (1) {
		sleep_task();
20001bbc:	0025bfc0 	call	20025bfc <sleep_task>
		gev_stop(g_handle);
20001bc0:	d0a01a17 	ldw	r2,-32664(gp)
20001bc4:	1009883a 	mov	r4,r2
20001bc8:	000786c0 	call	2000786c <gev_stop>
	}
20001bcc:	003ffb06 	br	20001bbc <__alt_exception_stack_pointer+0xf0001bbc>

20001bd0 <read_mem_xml>:
//! @param[out] p_data : Memory data
//
//! @retval  0 : Success
//------------------------------------------------------------------------------
static int read_mem_xml(u32 arg, u32 ofst, u32 size, u8 *p_data)
{
20001bd0:	defffa04 	addi	sp,sp,-24
20001bd4:	dfc00515 	stw	ra,20(sp)
20001bd8:	df000415 	stw	fp,16(sp)
20001bdc:	df000404 	addi	fp,sp,16
20001be0:	e13ffc15 	stw	r4,-16(fp)
20001be4:	e17ffd15 	stw	r5,-12(fp)
20001be8:	e1bffe15 	stw	r6,-8(fp)
20001bec:	e1ffff15 	stw	r7,-4(fp)
//	memcpy(p_data, g_xml_file_p1 + ofst, size);

	if (g_test_version == GEV_VERSION_20) {
20001bf0:	d0e00017 	ldw	r3,-32768(gp)
20001bf4:	008000b4 	movhi	r2,2
20001bf8:	1880091e 	bne	r3,r2,20001c20 <read_mem_xml+0x50>
		memcpy(p_data, g_xml_file_v20_p1 + ofst, size);
20001bfc:	e0fffd17 	ldw	r3,-12(fp)
20001c00:	008801f4 	movhi	r2,8199
20001c04:	10bea404 	addi	r2,r2,-1392
20001c08:	1885883a 	add	r2,r3,r2
20001c0c:	e1bffe17 	ldw	r6,-8(fp)
20001c10:	100b883a 	mov	r5,r2
20001c14:	e13fff17 	ldw	r4,-4(fp)
20001c18:	003adc40 	call	2003adc4 <memcpy>
20001c1c:	00000806 	br	20001c40 <read_mem_xml+0x70>
	}
	else  {
		memcpy(p_data, g_xml_file_v12_p1 + ofst, size);
20001c20:	e0fffd17 	ldw	r3,-12(fp)
20001c24:	00880174 	movhi	r2,8197
20001c28:	10a6e204 	addi	r2,r2,-25720
20001c2c:	1885883a 	add	r2,r3,r2
20001c30:	e1bffe17 	ldw	r6,-8(fp)
20001c34:	100b883a 	mov	r5,r2
20001c38:	e13fff17 	ldw	r4,-4(fp)
20001c3c:	003adc40 	call	2003adc4 <memcpy>
	}

	return 0;
20001c40:	0005883a 	mov	r2,zero
}
20001c44:	e037883a 	mov	sp,fp
20001c48:	dfc00117 	ldw	ra,4(sp)
20001c4c:	df000017 	ldw	fp,0(sp)
20001c50:	dec00204 	addi	sp,sp,8
20001c54:	f800283a 	ret

20001c58 <act_cmd_0>:
//! @param[in] arg   : argument
//
//! @return None
//------------------------------------------------------------------------------
static void act_cmd_0(u32 arg)
{
20001c58:	defffb04 	addi	sp,sp,-20
20001c5c:	dfc00415 	stw	ra,16(sp)
20001c60:	df000315 	stw	fp,12(sp)
20001c64:	df000304 	addi	fp,sp,12
20001c68:	e13fff15 	stw	r4,-4(fp)
	printf("Action Command function 0. arg = %d\r\n", (int)arg);
20001c6c:	e0bfff17 	ldw	r2,-4(fp)
20001c70:	100b883a 	mov	r5,r2
20001c74:	01080174 	movhi	r4,8197
20001c78:	21208d04 	addi	r4,r4,-32204
20001c7c:	003b0640 	call	2003b064 <printf>
// send event command
	gev_send_evt_cmd(g_handle, 0xA001);
20001c80:	d0a01a17 	ldw	r2,-32664(gp)
20001c84:	01680054 	movui	r5,40961
20001c88:	1009883a 	mov	r4,r2
20001c8c:	0007b600 	call	20007b60 <gev_send_evt_cmd>
	printf("send event command\r\n");
20001c90:	01080174 	movhi	r4,8197
20001c94:	21209704 	addi	r4,r4,-32164
20001c98:	003b1600 	call	2003b160 <puts>

#if defined(PTP_SUPPORT)
	u32 value_high, value_low;

	gev_get_scheduled_action_time_high(g_handle, &value_high);
20001c9c:	d0a01a17 	ldw	r2,-32664(gp)
20001ca0:	e17ffd04 	addi	r5,fp,-12
20001ca4:	1009883a 	mov	r4,r2
20001ca8:	000cb700 	call	2000cb70 <gev_get_scheduled_action_time_high>
	gev_get_scheduled_action_time_low(g_handle, &value_low);
20001cac:	d0a01a17 	ldw	r2,-32664(gp)
20001cb0:	e0fffe04 	addi	r3,fp,-8
20001cb4:	180b883a 	mov	r5,r3
20001cb8:	1009883a 	mov	r4,r2
20001cbc:	000cc000 	call	2000cc00 <gev_get_scheduled_action_time_low>
	printf("Action Time High = %08x\r\n", (unsigned int)value_high);
20001cc0:	e0bffd17 	ldw	r2,-12(fp)
20001cc4:	100b883a 	mov	r5,r2
20001cc8:	01080174 	movhi	r4,8197
20001ccc:	21209c04 	addi	r4,r4,-32144
20001cd0:	003b0640 	call	2003b064 <printf>
	printf("Action Time Low  = %08x\r\n", (unsigned int)value_low);
20001cd4:	e0bffe17 	ldw	r2,-8(fp)
20001cd8:	100b883a 	mov	r5,r2
20001cdc:	01080174 	movhi	r4,8197
20001ce0:	2120a304 	addi	r4,r4,-32116
20001ce4:	003b0640 	call	2003b064 <printf>
#endif  // defined(PTP_SUPPORT)
}
20001ce8:	0001883a 	nop
20001cec:	e037883a 	mov	sp,fp
20001cf0:	dfc00117 	ldw	ra,4(sp)
20001cf4:	df000017 	ldw	fp,0(sp)
20001cf8:	dec00204 	addi	sp,sp,8
20001cfc:	f800283a 	ret

20001d00 <act_cmd_1>:
//! @param[in] arg   : argument
//
//! @return None
//------------------------------------------------------------------------------
static void act_cmd_1(u32 arg)
{
20001d00:	defff804 	addi	sp,sp,-32
20001d04:	dfc00715 	stw	ra,28(sp)
20001d08:	df000615 	stw	fp,24(sp)
20001d0c:	df000604 	addi	fp,sp,24
20001d10:	e13fff15 	stw	r4,-4(fp)
	char eventdata[] = "12345678";
20001d14:	008d0cf4 	movhi	r2,13363
20001d18:	108c8c44 	addi	r2,r2,12849
20001d1c:	e0bffa15 	stw	r2,-24(fp)
20001d20:	008e0df4 	movhi	r2,14391
20001d24:	108d8d44 	addi	r2,r2,13877
20001d28:	e0bffb15 	stw	r2,-20(fp)
20001d2c:	e03ffc05 	stb	zero,-16(fp)

	printf("Action Command function 1. arg = %d\r\n", (int)arg);
20001d30:	e0bfff17 	ldw	r2,-4(fp)
20001d34:	100b883a 	mov	r5,r2
20001d38:	01080174 	movhi	r4,8197
20001d3c:	2120aa04 	addi	r4,r4,-32088
20001d40:	003b0640 	call	2003b064 <printf>
// send event data command
	gev_send_evtdt_cmd(g_handle, 0xA005, (u8 *)eventdata, 8);
20001d44:	d0a01a17 	ldw	r2,-32664(gp)
20001d48:	01c00204 	movi	r7,8
20001d4c:	e1bffa04 	addi	r6,fp,-24
20001d50:	01680154 	movui	r5,40965
20001d54:	1009883a 	mov	r4,r2
20001d58:	0007df40 	call	20007df4 <gev_send_evtdt_cmd>
	printf("send event data command\r\n");
20001d5c:	01080174 	movhi	r4,8197
20001d60:	2120b404 	addi	r4,r4,-32048
20001d64:	003b1600 	call	2003b160 <puts>

#if defined(PTP_SUPPORT)
	u32 value_high, value_low;

	gev_get_scheduled_action_time_high(g_handle, &value_high);
20001d68:	d0a01a17 	ldw	r2,-32664(gp)
20001d6c:	e0fffd04 	addi	r3,fp,-12
20001d70:	180b883a 	mov	r5,r3
20001d74:	1009883a 	mov	r4,r2
20001d78:	000cb700 	call	2000cb70 <gev_get_scheduled_action_time_high>
	gev_get_scheduled_action_time_low(g_handle, &value_low);
20001d7c:	d0a01a17 	ldw	r2,-32664(gp)
20001d80:	e0fffe04 	addi	r3,fp,-8
20001d84:	180b883a 	mov	r5,r3
20001d88:	1009883a 	mov	r4,r2
20001d8c:	000cc000 	call	2000cc00 <gev_get_scheduled_action_time_low>
	printf("Action Time High = %08x\r\n", (unsigned int)value_high);
20001d90:	e0bffd17 	ldw	r2,-12(fp)
20001d94:	100b883a 	mov	r5,r2
20001d98:	01080174 	movhi	r4,8197
20001d9c:	21209c04 	addi	r4,r4,-32144
20001da0:	003b0640 	call	2003b064 <printf>
	printf("Action Time Low  = %08x\r\n", (unsigned int)value_low);
20001da4:	e0bffe17 	ldw	r2,-8(fp)
20001da8:	100b883a 	mov	r5,r2
20001dac:	01080174 	movhi	r4,8197
20001db0:	2120a304 	addi	r4,r4,-32116
20001db4:	003b0640 	call	2003b064 <printf>
#endif  // defined(PTP_SUPPORT)
}
20001db8:	0001883a 	nop
20001dbc:	e037883a 	mov	sp,fp
20001dc0:	dfc00117 	ldw	ra,4(sp)
20001dc4:	df000017 	ldw	fp,0(sp)
20001dc8:	dec00204 	addi	sp,sp,8
20001dcc:	f800283a 	ret

20001dd0 <act_cmd_2>:
//! @param[in] arg   : argument
//
//! @return None
//------------------------------------------------------------------------------
static void act_cmd_2(u32 arg)
{
20001dd0:	deffef04 	addi	sp,sp,-68
20001dd4:	dfc01015 	stw	ra,64(sp)
20001dd8:	df000f15 	stw	fp,60(sp)
20001ddc:	df000f04 	addi	fp,sp,60
20001de0:	e13fff15 	stw	r4,-4(fp)
	u8 chunk_data_1[] = "1234";
20001de4:	008d0cf4 	movhi	r2,13363
20001de8:	108c8c44 	addi	r2,r2,12849
20001dec:	e0bff315 	stw	r2,-52(fp)
20001df0:	e03ff405 	stb	zero,-48(fp)
	u8 chunk_data_2[] = "2222";
20001df4:	00800c84 	movi	r2,50
20001df8:	e0bff445 	stb	r2,-47(fp)
20001dfc:	00800c84 	movi	r2,50
20001e00:	e0bff485 	stb	r2,-46(fp)
20001e04:	00800c84 	movi	r2,50
20001e08:	e0bff4c5 	stb	r2,-45(fp)
20001e0c:	00800c84 	movi	r2,50
20001e10:	e0bff505 	stb	r2,-44(fp)
20001e14:	e03ff545 	stb	zero,-43(fp)
	u8 chunk_data_3[] = "3333";
20001e18:	008cccc4 	movi	r2,13107
20001e1c:	e0bff58d 	sth	r2,-42(fp)
20001e20:	008cccc4 	movi	r2,13107
20001e24:	e0bff60d 	sth	r2,-40(fp)
20001e28:	e03ff685 	stb	zero,-38(fp)
	u8 chunk_data_4[] = "4444";
20001e2c:	00800d04 	movi	r2,52
20001e30:	e0bff6c5 	stb	r2,-37(fp)
20001e34:	00800d04 	movi	r2,52
20001e38:	e0bff705 	stb	r2,-36(fp)
20001e3c:	00800d04 	movi	r2,52
20001e40:	e0bff745 	stb	r2,-35(fp)
20001e44:	00800d04 	movi	r2,52
20001e48:	e0bff785 	stb	r2,-34(fp)
20001e4c:	e03ff7c5 	stb	zero,-33(fp)
	u8 chunk_data_5[] = "5555";
20001e50:	008d4d74 	movhi	r2,13621
20001e54:	108d4d44 	addi	r2,r2,13621
20001e58:	e0bff815 	stw	r2,-32(fp)
20001e5c:	e03ff905 	stb	zero,-28(fp)
	u8 chunk_data_6[] = "6666";
20001e60:	00800d84 	movi	r2,54
20001e64:	e0bff945 	stb	r2,-27(fp)
20001e68:	00800d84 	movi	r2,54
20001e6c:	e0bff985 	stb	r2,-26(fp)
20001e70:	00800d84 	movi	r2,54
20001e74:	e0bff9c5 	stb	r2,-25(fp)
20001e78:	00800d84 	movi	r2,54
20001e7c:	e0bffa05 	stb	r2,-24(fp)
20001e80:	e03ffa45 	stb	zero,-23(fp)
	u8 chunk_data_7[] = "7777";
20001e84:	008dcdc4 	movi	r2,14135
20001e88:	e0bffa8d 	sth	r2,-22(fp)
20001e8c:	008dcdc4 	movi	r2,14135
20001e90:	e0bffb0d 	sth	r2,-20(fp)
20001e94:	e03ffb85 	stb	zero,-18(fp)
	u8 chunk_data_8[] = "8888";
20001e98:	00800e04 	movi	r2,56
20001e9c:	e0bffbc5 	stb	r2,-17(fp)
20001ea0:	00800e04 	movi	r2,56
20001ea4:	e0bffc05 	stb	r2,-16(fp)
20001ea8:	00800e04 	movi	r2,56
20001eac:	e0bffc45 	stb	r2,-15(fp)
20001eb0:	00800e04 	movi	r2,56
20001eb4:	e0bffc85 	stb	r2,-14(fp)
20001eb8:	e03ffcc5 	stb	zero,-13(fp)
	static u8 tgl = 0;

	gev_err_t ret ;

	printf("Action Command function 2. arg = %d\r\n", (int)arg);
20001ebc:	e0bfff17 	ldw	r2,-4(fp)
20001ec0:	100b883a 	mov	r5,r2
20001ec4:	01080174 	movhi	r4,8197
20001ec8:	2120bb04 	addi	r4,r4,-32020
20001ecc:	003b0640 	call	2003b064 <printf>
// toggle chunk data
	if (tgl == 0) {
20001ed0:	d0a01483 	ldbu	r2,-32686(gp)
20001ed4:	10803fcc 	andi	r2,r2,255
20001ed8:	1000861e 	bne	r2,zero,200020f4 <act_cmd_2+0x324>
		printf("Chunk data: pattern 1 - 8 \r\n");
20001edc:	01080174 	movhi	r4,8197
20001ee0:	2120c504 	addi	r4,r4,-31980
20001ee4:	003b1600 	call	2003b160 <puts>
		tgl = 1;
20001ee8:	00800044 	movi	r2,1
20001eec:	d0a01485 	stb	r2,-32686(gp)
		ret = gev_update_chunk_data(g_handle, 0x12344321, chunk_data_1, 0, 4);
20001ef0:	d0e01a17 	ldw	r3,-32664(gp)
20001ef4:	e13ff304 	addi	r4,fp,-52
20001ef8:	00800104 	movi	r2,4
20001efc:	d8800015 	stw	r2,0(sp)
20001f00:	000f883a 	mov	r7,zero
20001f04:	200d883a 	mov	r6,r4
20001f08:	01448d34 	movhi	r5,4660
20001f0c:	2950c844 	addi	r5,r5,17185
20001f10:	1809883a 	mov	r4,r3
20001f14:	00088180 	call	20008818 <gev_update_chunk_data>
20001f18:	e0bff215 	stw	r2,-56(fp)
		if (ret == GEV_ERR_SUCCESS)  { printf("Update Chunk Data : ID 0x12344321\r\n"); }
20001f1c:	e0bff217 	ldw	r2,-56(fp)
20001f20:	1000031e 	bne	r2,zero,20001f30 <act_cmd_2+0x160>
20001f24:	01080174 	movhi	r4,8197
20001f28:	2120cc04 	addi	r4,r4,-31952
20001f2c:	003b1600 	call	2003b160 <puts>
		ret = gev_update_chunk_data(g_handle, 0x23455432, chunk_data_2, 0, 4);
20001f30:	d0e01a17 	ldw	r3,-32664(gp)
20001f34:	e13ff444 	addi	r4,fp,-47
20001f38:	00800104 	movi	r2,4
20001f3c:	d8800015 	stw	r2,0(sp)
20001f40:	000f883a 	mov	r7,zero
20001f44:	200d883a 	mov	r6,r4
20001f48:	0148d174 	movhi	r5,9029
20001f4c:	29550c84 	addi	r5,r5,21554
20001f50:	1809883a 	mov	r4,r3
20001f54:	00088180 	call	20008818 <gev_update_chunk_data>
20001f58:	e0bff215 	stw	r2,-56(fp)
		if (ret == GEV_ERR_SUCCESS)  { printf("Update Chunk Data : ID 0x23455432\r\n"); }
20001f5c:	e0bff217 	ldw	r2,-56(fp)
20001f60:	1000031e 	bne	r2,zero,20001f70 <act_cmd_2+0x1a0>
20001f64:	01080174 	movhi	r4,8197
20001f68:	2120d504 	addi	r4,r4,-31916
20001f6c:	003b1600 	call	2003b160 <puts>
		ret = gev_update_chunk_data(g_handle, 0x34566543, chunk_data_3, 0, 4);
20001f70:	d0e01a17 	ldw	r3,-32664(gp)
20001f74:	e13ff584 	addi	r4,fp,-42
20001f78:	00800104 	movi	r2,4
20001f7c:	d8800015 	stw	r2,0(sp)
20001f80:	000f883a 	mov	r7,zero
20001f84:	200d883a 	mov	r6,r4
20001f88:	014d15b4 	movhi	r5,13398
20001f8c:	295950c4 	addi	r5,r5,25923
20001f90:	1809883a 	mov	r4,r3
20001f94:	00088180 	call	20008818 <gev_update_chunk_data>
20001f98:	e0bff215 	stw	r2,-56(fp)
		if (ret == GEV_ERR_SUCCESS)  { printf("Update Chunk Data : ID 0x34566543\r\n"); }
20001f9c:	e0bff217 	ldw	r2,-56(fp)
20001fa0:	1000031e 	bne	r2,zero,20001fb0 <act_cmd_2+0x1e0>
20001fa4:	01080174 	movhi	r4,8197
20001fa8:	2120de04 	addi	r4,r4,-31880
20001fac:	003b1600 	call	2003b160 <puts>
		ret = gev_update_chunk_data(g_handle, 0x45677654, chunk_data_4, 0, 4);
20001fb0:	d0e01a17 	ldw	r3,-32664(gp)
20001fb4:	e13ff6c4 	addi	r4,fp,-37
20001fb8:	00800104 	movi	r2,4
20001fbc:	d8800015 	stw	r2,0(sp)
20001fc0:	000f883a 	mov	r7,zero
20001fc4:	200d883a 	mov	r6,r4
20001fc8:	015159f4 	movhi	r5,17767
20001fcc:	295d9504 	addi	r5,r5,30292
20001fd0:	1809883a 	mov	r4,r3
20001fd4:	00088180 	call	20008818 <gev_update_chunk_data>
20001fd8:	e0bff215 	stw	r2,-56(fp)
		if (ret == GEV_ERR_SUCCESS)  { printf("Update Chunk Data : ID 0x45677654\r\n"); }
20001fdc:	e0bff217 	ldw	r2,-56(fp)
20001fe0:	1000031e 	bne	r2,zero,20001ff0 <act_cmd_2+0x220>
20001fe4:	01080174 	movhi	r4,8197
20001fe8:	2120e704 	addi	r4,r4,-31844
20001fec:	003b1600 	call	2003b160 <puts>
		ret = gev_update_chunk_data(g_handle, 0x56788765, chunk_data_5, 0, 4);
20001ff0:	d0e01a17 	ldw	r3,-32664(gp)
20001ff4:	e13ff804 	addi	r4,fp,-32
20001ff8:	00800104 	movi	r2,4
20001ffc:	d8800015 	stw	r2,0(sp)
20002000:	000f883a 	mov	r7,zero
20002004:	200d883a 	mov	r6,r4
20002008:	01559e74 	movhi	r5,22137
2000200c:	2961d944 	addi	r5,r5,-30875
20002010:	1809883a 	mov	r4,r3
20002014:	00088180 	call	20008818 <gev_update_chunk_data>
20002018:	e0bff215 	stw	r2,-56(fp)
		if (ret == GEV_ERR_SUCCESS)  { printf("Update Chunk Data : ID 0x56788765\r\n"); }
2000201c:	e0bff217 	ldw	r2,-56(fp)
20002020:	1000031e 	bne	r2,zero,20002030 <act_cmd_2+0x260>
20002024:	01080174 	movhi	r4,8197
20002028:	2120f004 	addi	r4,r4,-31808
2000202c:	003b1600 	call	2003b160 <puts>
		ret = gev_update_chunk_data(g_handle, 0x67899876, chunk_data_6, 0, 4);
20002030:	d0e01a17 	ldw	r3,-32664(gp)
20002034:	e13ff944 	addi	r4,fp,-27
20002038:	00800104 	movi	r2,4
2000203c:	d8800015 	stw	r2,0(sp)
20002040:	000f883a 	mov	r7,zero
20002044:	200d883a 	mov	r6,r4
20002048:	0159e2b4 	movhi	r5,26506
2000204c:	29661d84 	addi	r5,r5,-26506
20002050:	1809883a 	mov	r4,r3
20002054:	00088180 	call	20008818 <gev_update_chunk_data>
20002058:	e0bff215 	stw	r2,-56(fp)
		if (ret == GEV_ERR_SUCCESS)  { printf("Update Chunk Data : ID 0x67899876\r\n"); }
2000205c:	e0bff217 	ldw	r2,-56(fp)
20002060:	1000031e 	bne	r2,zero,20002070 <act_cmd_2+0x2a0>
20002064:	01080174 	movhi	r4,8197
20002068:	2120f904 	addi	r4,r4,-31772
2000206c:	003b1600 	call	2003b160 <puts>
		ret = gev_update_chunk_data(g_handle, 0x789AA987, chunk_data_7, 0, 4);
20002070:	d0e01a17 	ldw	r3,-32664(gp)
20002074:	e13ffa84 	addi	r4,fp,-22
20002078:	00800104 	movi	r2,4
2000207c:	d8800015 	stw	r2,0(sp)
20002080:	000f883a 	mov	r7,zero
20002084:	200d883a 	mov	r6,r4
20002088:	015e26f4 	movhi	r5,30875
2000208c:	296a61c4 	addi	r5,r5,-22137
20002090:	1809883a 	mov	r4,r3
20002094:	00088180 	call	20008818 <gev_update_chunk_data>
20002098:	e0bff215 	stw	r2,-56(fp)
		if (ret == GEV_ERR_SUCCESS)  { printf("Update Chunk Data : ID 0x789AA987\r\n"); }
2000209c:	e0bff217 	ldw	r2,-56(fp)
200020a0:	1000031e 	bne	r2,zero,200020b0 <act_cmd_2+0x2e0>
200020a4:	01080174 	movhi	r4,8197
200020a8:	21210204 	addi	r4,r4,-31736
200020ac:	003b1600 	call	2003b160 <puts>
		ret = gev_update_chunk_data(g_handle, 0x89ABBA98, chunk_data_8, 0, 4);
200020b0:	d0e01a17 	ldw	r3,-32664(gp)
200020b4:	e13ffbc4 	addi	r4,fp,-17
200020b8:	00800104 	movi	r2,4
200020bc:	d8800015 	stw	r2,0(sp)
200020c0:	000f883a 	mov	r7,zero
200020c4:	200d883a 	mov	r6,r4
200020c8:	01626b34 	movhi	r5,35244
200020cc:	296ea604 	addi	r5,r5,-17768
200020d0:	1809883a 	mov	r4,r3
200020d4:	00088180 	call	20008818 <gev_update_chunk_data>
200020d8:	e0bff215 	stw	r2,-56(fp)
		if (ret == GEV_ERR_SUCCESS)  { printf("Update Chunk Data : ID 0x89ABBA98\r\n"); }
200020dc:	e0bff217 	ldw	r2,-56(fp)
200020e0:	1000881e 	bne	r2,zero,20002304 <act_cmd_2+0x534>
200020e4:	01080174 	movhi	r4,8197
200020e8:	21210b04 	addi	r4,r4,-31700
200020ec:	003b1600 	call	2003b160 <puts>
200020f0:	00008406 	br	20002304 <act_cmd_2+0x534>
	}
	else {
		printf("Chunk data: pattern 8 - 1 \r\n");
200020f4:	01080174 	movhi	r4,8197
200020f8:	21211404 	addi	r4,r4,-31664
200020fc:	003b1600 	call	2003b160 <puts>
		tgl = 0;
20002100:	d0201485 	stb	zero,-32686(gp)
		ret = gev_update_chunk_data(g_handle, 0x89ABBA98, chunk_data_1, 0, 4);
20002104:	d0e01a17 	ldw	r3,-32664(gp)
20002108:	e13ff304 	addi	r4,fp,-52
2000210c:	00800104 	movi	r2,4
20002110:	d8800015 	stw	r2,0(sp)
20002114:	000f883a 	mov	r7,zero
20002118:	200d883a 	mov	r6,r4
2000211c:	01626b34 	movhi	r5,35244
20002120:	296ea604 	addi	r5,r5,-17768
20002124:	1809883a 	mov	r4,r3
20002128:	00088180 	call	20008818 <gev_update_chunk_data>
2000212c:	e0bff215 	stw	r2,-56(fp)
		if (ret == GEV_ERR_SUCCESS)  { printf("Update Chunk Data : ID 0x89ABBA98\r\n"); }
20002130:	e0bff217 	ldw	r2,-56(fp)
20002134:	1000031e 	bne	r2,zero,20002144 <act_cmd_2+0x374>
20002138:	01080174 	movhi	r4,8197
2000213c:	21210b04 	addi	r4,r4,-31700
20002140:	003b1600 	call	2003b160 <puts>
		ret = gev_update_chunk_data(g_handle, 0x789AA987, chunk_data_2, 0, 4);
20002144:	d0e01a17 	ldw	r3,-32664(gp)
20002148:	e13ff444 	addi	r4,fp,-47
2000214c:	00800104 	movi	r2,4
20002150:	d8800015 	stw	r2,0(sp)
20002154:	000f883a 	mov	r7,zero
20002158:	200d883a 	mov	r6,r4
2000215c:	015e26f4 	movhi	r5,30875
20002160:	296a61c4 	addi	r5,r5,-22137
20002164:	1809883a 	mov	r4,r3
20002168:	00088180 	call	20008818 <gev_update_chunk_data>
2000216c:	e0bff215 	stw	r2,-56(fp)
		if (ret == GEV_ERR_SUCCESS)  { printf("Update Chunk Data : ID 0x789AA987\r\n"); }
20002170:	e0bff217 	ldw	r2,-56(fp)
20002174:	1000031e 	bne	r2,zero,20002184 <act_cmd_2+0x3b4>
20002178:	01080174 	movhi	r4,8197
2000217c:	21210204 	addi	r4,r4,-31736
20002180:	003b1600 	call	2003b160 <puts>
		ret = gev_update_chunk_data(g_handle, 0x67899876, chunk_data_3, 0, 4);
20002184:	d0e01a17 	ldw	r3,-32664(gp)
20002188:	e13ff584 	addi	r4,fp,-42
2000218c:	00800104 	movi	r2,4
20002190:	d8800015 	stw	r2,0(sp)
20002194:	000f883a 	mov	r7,zero
20002198:	200d883a 	mov	r6,r4
2000219c:	0159e2b4 	movhi	r5,26506
200021a0:	29661d84 	addi	r5,r5,-26506
200021a4:	1809883a 	mov	r4,r3
200021a8:	00088180 	call	20008818 <gev_update_chunk_data>
200021ac:	e0bff215 	stw	r2,-56(fp)
		if (ret == GEV_ERR_SUCCESS)  { printf("Update Chunk Data : ID 0x67899876\r\n"); }
200021b0:	e0bff217 	ldw	r2,-56(fp)
200021b4:	1000031e 	bne	r2,zero,200021c4 <act_cmd_2+0x3f4>
200021b8:	01080174 	movhi	r4,8197
200021bc:	2120f904 	addi	r4,r4,-31772
200021c0:	003b1600 	call	2003b160 <puts>
		ret = gev_update_chunk_data(g_handle, 0x56788765, chunk_data_4, 0, 4);
200021c4:	d0e01a17 	ldw	r3,-32664(gp)
200021c8:	e13ff6c4 	addi	r4,fp,-37
200021cc:	00800104 	movi	r2,4
200021d0:	d8800015 	stw	r2,0(sp)
200021d4:	000f883a 	mov	r7,zero
200021d8:	200d883a 	mov	r6,r4
200021dc:	01559e74 	movhi	r5,22137
200021e0:	2961d944 	addi	r5,r5,-30875
200021e4:	1809883a 	mov	r4,r3
200021e8:	00088180 	call	20008818 <gev_update_chunk_data>
200021ec:	e0bff215 	stw	r2,-56(fp)
		if (ret == GEV_ERR_SUCCESS)  { printf("Update Chunk Data : ID 0x56788765\r\n"); }
200021f0:	e0bff217 	ldw	r2,-56(fp)
200021f4:	1000031e 	bne	r2,zero,20002204 <act_cmd_2+0x434>
200021f8:	01080174 	movhi	r4,8197
200021fc:	2120f004 	addi	r4,r4,-31808
20002200:	003b1600 	call	2003b160 <puts>
		ret = gev_update_chunk_data(g_handle, 0x45677654, chunk_data_5, 0, 4);
20002204:	d0e01a17 	ldw	r3,-32664(gp)
20002208:	e13ff804 	addi	r4,fp,-32
2000220c:	00800104 	movi	r2,4
20002210:	d8800015 	stw	r2,0(sp)
20002214:	000f883a 	mov	r7,zero
20002218:	200d883a 	mov	r6,r4
2000221c:	015159f4 	movhi	r5,17767
20002220:	295d9504 	addi	r5,r5,30292
20002224:	1809883a 	mov	r4,r3
20002228:	00088180 	call	20008818 <gev_update_chunk_data>
2000222c:	e0bff215 	stw	r2,-56(fp)
		if (ret == GEV_ERR_SUCCESS)  { printf("Update Chunk Data : ID 0x45677654\r\n"); }
20002230:	e0bff217 	ldw	r2,-56(fp)
20002234:	1000031e 	bne	r2,zero,20002244 <act_cmd_2+0x474>
20002238:	01080174 	movhi	r4,8197
2000223c:	2120e704 	addi	r4,r4,-31844
20002240:	003b1600 	call	2003b160 <puts>
		ret = gev_update_chunk_data(g_handle, 0x34566543, chunk_data_6, 0, 4);
20002244:	d0e01a17 	ldw	r3,-32664(gp)
20002248:	e13ff944 	addi	r4,fp,-27
2000224c:	00800104 	movi	r2,4
20002250:	d8800015 	stw	r2,0(sp)
20002254:	000f883a 	mov	r7,zero
20002258:	200d883a 	mov	r6,r4
2000225c:	014d15b4 	movhi	r5,13398
20002260:	295950c4 	addi	r5,r5,25923
20002264:	1809883a 	mov	r4,r3
20002268:	00088180 	call	20008818 <gev_update_chunk_data>
2000226c:	e0bff215 	stw	r2,-56(fp)
		if (ret == GEV_ERR_SUCCESS)  { printf("Update Chunk Data : ID 0x34566543\r\n"); }
20002270:	e0bff217 	ldw	r2,-56(fp)
20002274:	1000031e 	bne	r2,zero,20002284 <act_cmd_2+0x4b4>
20002278:	01080174 	movhi	r4,8197
2000227c:	2120de04 	addi	r4,r4,-31880
20002280:	003b1600 	call	2003b160 <puts>
		ret = gev_update_chunk_data(g_handle, 0x23455432, chunk_data_7, 0, 4);
20002284:	d0e01a17 	ldw	r3,-32664(gp)
20002288:	e13ffa84 	addi	r4,fp,-22
2000228c:	00800104 	movi	r2,4
20002290:	d8800015 	stw	r2,0(sp)
20002294:	000f883a 	mov	r7,zero
20002298:	200d883a 	mov	r6,r4
2000229c:	0148d174 	movhi	r5,9029
200022a0:	29550c84 	addi	r5,r5,21554
200022a4:	1809883a 	mov	r4,r3
200022a8:	00088180 	call	20008818 <gev_update_chunk_data>
200022ac:	e0bff215 	stw	r2,-56(fp)
		if (ret == GEV_ERR_SUCCESS)  { printf("Update Chunk Data : ID 0x23455432\r\n"); }
200022b0:	e0bff217 	ldw	r2,-56(fp)
200022b4:	1000031e 	bne	r2,zero,200022c4 <act_cmd_2+0x4f4>
200022b8:	01080174 	movhi	r4,8197
200022bc:	2120d504 	addi	r4,r4,-31916
200022c0:	003b1600 	call	2003b160 <puts>
		ret = gev_update_chunk_data(g_handle, 0x12344321, chunk_data_8, 0, 4);
200022c4:	d0e01a17 	ldw	r3,-32664(gp)
200022c8:	e13ffbc4 	addi	r4,fp,-17
200022cc:	00800104 	movi	r2,4
200022d0:	d8800015 	stw	r2,0(sp)
200022d4:	000f883a 	mov	r7,zero
200022d8:	200d883a 	mov	r6,r4
200022dc:	01448d34 	movhi	r5,4660
200022e0:	2950c844 	addi	r5,r5,17185
200022e4:	1809883a 	mov	r4,r3
200022e8:	00088180 	call	20008818 <gev_update_chunk_data>
200022ec:	e0bff215 	stw	r2,-56(fp)
		if (ret == GEV_ERR_SUCCESS)  { printf("Update Chunk Data : ID 0x12344321\r\n"); }
200022f0:	e0bff217 	ldw	r2,-56(fp)
200022f4:	1000031e 	bne	r2,zero,20002304 <act_cmd_2+0x534>
200022f8:	01080174 	movhi	r4,8197
200022fc:	2120cc04 	addi	r4,r4,-31952
20002300:	003b1600 	call	2003b160 <puts>
	}

#if defined(PTP_SUPPORT)
	u32 value_high, value_low;

	gev_get_scheduled_action_time_high(g_handle, &value_high);
20002304:	d0a01a17 	ldw	r2,-32664(gp)
20002308:	e0fffd04 	addi	r3,fp,-12
2000230c:	180b883a 	mov	r5,r3
20002310:	1009883a 	mov	r4,r2
20002314:	000cb700 	call	2000cb70 <gev_get_scheduled_action_time_high>
	gev_get_scheduled_action_time_low(g_handle, &value_low);
20002318:	d0a01a17 	ldw	r2,-32664(gp)
2000231c:	e0fffe04 	addi	r3,fp,-8
20002320:	180b883a 	mov	r5,r3
20002324:	1009883a 	mov	r4,r2
20002328:	000cc000 	call	2000cc00 <gev_get_scheduled_action_time_low>
	printf("Action Time High = %08x\r\n", (unsigned int)value_high);
2000232c:	e0bffd17 	ldw	r2,-12(fp)
20002330:	100b883a 	mov	r5,r2
20002334:	01080174 	movhi	r4,8197
20002338:	21209c04 	addi	r4,r4,-32144
2000233c:	003b0640 	call	2003b064 <printf>
	printf("Action Time Low  = %08x\r\n", (unsigned int)value_low);
20002340:	e0bffe17 	ldw	r2,-8(fp)
20002344:	100b883a 	mov	r5,r2
20002348:	01080174 	movhi	r4,8197
2000234c:	2120a304 	addi	r4,r4,-32116
20002350:	003b0640 	call	2003b064 <printf>
#endif  // defined(PTP_SUPPORT)
}
20002354:	0001883a 	nop
20002358:	e037883a 	mov	sp,fp
2000235c:	dfc00117 	ldw	ra,4(sp)
20002360:	df000017 	ldw	fp,0(sp)
20002364:	dec00204 	addi	sp,sp,8
20002368:	f800283a 	ret

2000236c <act_cmd_3>:
//! @param[in] arg   : argument
//
//! @return None
//------------------------------------------------------------------------------
static void act_cmd_3(u32 arg)
{
2000236c:	defffb04 	addi	sp,sp,-20
20002370:	dfc00415 	stw	ra,16(sp)
20002374:	df000315 	stw	fp,12(sp)
20002378:	df000304 	addi	fp,sp,12
2000237c:	e13fff15 	stw	r4,-4(fp)
	printf("Action Command function 3. arg = %d\r\n", (int)arg);
20002380:	e0bfff17 	ldw	r2,-4(fp)
20002384:	100b883a 	mov	r5,r2
20002388:	01080174 	movhi	r4,8197
2000238c:	21211b04 	addi	r4,r4,-31636
20002390:	003b0640 	call	2003b064 <printf>

#if defined(PTP_SUPPORT)
	u32 value_high, value_low;

	gev_get_scheduled_action_time_high(g_handle, &value_high);
20002394:	d0a01a17 	ldw	r2,-32664(gp)
20002398:	e17ffd04 	addi	r5,fp,-12
2000239c:	1009883a 	mov	r4,r2
200023a0:	000cb700 	call	2000cb70 <gev_get_scheduled_action_time_high>
	gev_get_scheduled_action_time_low(g_handle, &value_low);
200023a4:	d0a01a17 	ldw	r2,-32664(gp)
200023a8:	e0fffe04 	addi	r3,fp,-8
200023ac:	180b883a 	mov	r5,r3
200023b0:	1009883a 	mov	r4,r2
200023b4:	000cc000 	call	2000cc00 <gev_get_scheduled_action_time_low>
	printf("Action Time High = %08x\r\n", (unsigned int)value_high);
200023b8:	e0bffd17 	ldw	r2,-12(fp)
200023bc:	100b883a 	mov	r5,r2
200023c0:	01080174 	movhi	r4,8197
200023c4:	21209c04 	addi	r4,r4,-32144
200023c8:	003b0640 	call	2003b064 <printf>
	printf("Action Time Low  = %08x\r\n", (unsigned int)value_low);
200023cc:	e0bffe17 	ldw	r2,-8(fp)
200023d0:	100b883a 	mov	r5,r2
200023d4:	01080174 	movhi	r4,8197
200023d8:	2120a304 	addi	r4,r4,-32116
200023dc:	003b0640 	call	2003b064 <printf>
#endif  // defined(PTP_SUPPORT)
}
200023e0:	0001883a 	nop
200023e4:	e037883a 	mov	sp,fp
200023e8:	dfc00117 	ldw	ra,4(sp)
200023ec:	df000017 	ldw	fp,0(sp)
200023f0:	dec00204 	addi	sp,sp,8
200023f4:	f800283a 	ret

200023f8 <act_cmd_4>:
//! @param[in] arg   : argument
//
//! @return None
//------------------------------------------------------------------------------
static void act_cmd_4(u32 arg)
{
200023f8:	defffb04 	addi	sp,sp,-20
200023fc:	dfc00415 	stw	ra,16(sp)
20002400:	df000315 	stw	fp,12(sp)
20002404:	df000304 	addi	fp,sp,12
20002408:	e13fff15 	stw	r4,-4(fp)
	printf("Action Command function 4. arg = %d\r\n", (int)arg);
2000240c:	e0bfff17 	ldw	r2,-4(fp)
20002410:	100b883a 	mov	r5,r2
20002414:	01080174 	movhi	r4,8197
20002418:	21212504 	addi	r4,r4,-31596
2000241c:	003b0640 	call	2003b064 <printf>

#if defined(PTP_SUPPORT)
	u32 value_high, value_low;

	gev_get_scheduled_action_time_high(g_handle, &value_high);
20002420:	d0a01a17 	ldw	r2,-32664(gp)
20002424:	e17ffd04 	addi	r5,fp,-12
20002428:	1009883a 	mov	r4,r2
2000242c:	000cb700 	call	2000cb70 <gev_get_scheduled_action_time_high>
	gev_get_scheduled_action_time_low(g_handle, &value_low);
20002430:	d0a01a17 	ldw	r2,-32664(gp)
20002434:	e0fffe04 	addi	r3,fp,-8
20002438:	180b883a 	mov	r5,r3
2000243c:	1009883a 	mov	r4,r2
20002440:	000cc000 	call	2000cc00 <gev_get_scheduled_action_time_low>
	printf("Action Time High = %08x\r\n", (unsigned int)value_high);
20002444:	e0bffd17 	ldw	r2,-12(fp)
20002448:	100b883a 	mov	r5,r2
2000244c:	01080174 	movhi	r4,8197
20002450:	21209c04 	addi	r4,r4,-32144
20002454:	003b0640 	call	2003b064 <printf>
	printf("Action Time Low  = %08x\r\n", (unsigned int)value_low);
20002458:	e0bffe17 	ldw	r2,-8(fp)
2000245c:	100b883a 	mov	r5,r2
20002460:	01080174 	movhi	r4,8197
20002464:	2120a304 	addi	r4,r4,-32116
20002468:	003b0640 	call	2003b064 <printf>
#endif  // defined(PTP_SUPPORT)
}
2000246c:	0001883a 	nop
20002470:	e037883a 	mov	sp,fp
20002474:	dfc00117 	ldw	ra,4(sp)
20002478:	df000017 	ldw	fp,0(sp)
2000247c:	dec00204 	addi	sp,sp,8
20002480:	f800283a 	ret

20002484 <act_cmd_5>:
//! @param[in] arg   : argument
//
//! @return None
//------------------------------------------------------------------------------
static void act_cmd_5(u32 arg)
{
20002484:	defffb04 	addi	sp,sp,-20
20002488:	dfc00415 	stw	ra,16(sp)
2000248c:	df000315 	stw	fp,12(sp)
20002490:	df000304 	addi	fp,sp,12
20002494:	e13fff15 	stw	r4,-4(fp)
	printf("Action Command function 5. arg = %d\r\n", (int)arg);
20002498:	e0bfff17 	ldw	r2,-4(fp)
2000249c:	100b883a 	mov	r5,r2
200024a0:	01080174 	movhi	r4,8197
200024a4:	21212f04 	addi	r4,r4,-31556
200024a8:	003b0640 	call	2003b064 <printf>

#if defined(PTP_SUPPORT)
	u32 value_high, value_low;

	gev_get_scheduled_action_time_high(g_handle, &value_high);
200024ac:	d0a01a17 	ldw	r2,-32664(gp)
200024b0:	e17ffd04 	addi	r5,fp,-12
200024b4:	1009883a 	mov	r4,r2
200024b8:	000cb700 	call	2000cb70 <gev_get_scheduled_action_time_high>
	gev_get_scheduled_action_time_low(g_handle, &value_low);
200024bc:	d0a01a17 	ldw	r2,-32664(gp)
200024c0:	e0fffe04 	addi	r3,fp,-8
200024c4:	180b883a 	mov	r5,r3
200024c8:	1009883a 	mov	r4,r2
200024cc:	000cc000 	call	2000cc00 <gev_get_scheduled_action_time_low>
	printf("Action Time High = %08x\r\n", (unsigned int)value_high);
200024d0:	e0bffd17 	ldw	r2,-12(fp)
200024d4:	100b883a 	mov	r5,r2
200024d8:	01080174 	movhi	r4,8197
200024dc:	21209c04 	addi	r4,r4,-32144
200024e0:	003b0640 	call	2003b064 <printf>
	printf("Action Time Low  = %08x\r\n", (unsigned int)value_low);
200024e4:	e0bffe17 	ldw	r2,-8(fp)
200024e8:	100b883a 	mov	r5,r2
200024ec:	01080174 	movhi	r4,8197
200024f0:	2120a304 	addi	r4,r4,-32116
200024f4:	003b0640 	call	2003b064 <printf>
#endif  // defined(PTP_SUPPORT)
}
200024f8:	0001883a 	nop
200024fc:	e037883a 	mov	sp,fp
20002500:	dfc00117 	ldw	ra,4(sp)
20002504:	df000017 	ldw	fp,0(sp)
20002508:	dec00204 	addi	sp,sp,8
2000250c:	f800283a 	ret

20002510 <act_cmd_6>:
//! @param[in] arg   : argument
//
//! @return None
//------------------------------------------------------------------------------
static void act_cmd_6(u32 arg)
{
20002510:	defffb04 	addi	sp,sp,-20
20002514:	dfc00415 	stw	ra,16(sp)
20002518:	df000315 	stw	fp,12(sp)
2000251c:	df000304 	addi	fp,sp,12
20002520:	e13fff15 	stw	r4,-4(fp)
	printf("Action Command function 6. arg = %d\r\n", (int)arg);
20002524:	e0bfff17 	ldw	r2,-4(fp)
20002528:	100b883a 	mov	r5,r2
2000252c:	01080174 	movhi	r4,8197
20002530:	21213904 	addi	r4,r4,-31516
20002534:	003b0640 	call	2003b064 <printf>

#if defined(PTP_SUPPORT)
	u32 value_high, value_low;

	gev_get_scheduled_action_time_high(g_handle, &value_high);
20002538:	d0a01a17 	ldw	r2,-32664(gp)
2000253c:	e17ffd04 	addi	r5,fp,-12
20002540:	1009883a 	mov	r4,r2
20002544:	000cb700 	call	2000cb70 <gev_get_scheduled_action_time_high>
	gev_get_scheduled_action_time_low(g_handle, &value_low);
20002548:	d0a01a17 	ldw	r2,-32664(gp)
2000254c:	e0fffe04 	addi	r3,fp,-8
20002550:	180b883a 	mov	r5,r3
20002554:	1009883a 	mov	r4,r2
20002558:	000cc000 	call	2000cc00 <gev_get_scheduled_action_time_low>
	printf("Action Time High = %08x\r\n", (unsigned int)value_high);
2000255c:	e0bffd17 	ldw	r2,-12(fp)
20002560:	100b883a 	mov	r5,r2
20002564:	01080174 	movhi	r4,8197
20002568:	21209c04 	addi	r4,r4,-32144
2000256c:	003b0640 	call	2003b064 <printf>
	printf("Action Time Low  = %08x\r\n", (unsigned int)value_low);
20002570:	e0bffe17 	ldw	r2,-8(fp)
20002574:	100b883a 	mov	r5,r2
20002578:	01080174 	movhi	r4,8197
2000257c:	2120a304 	addi	r4,r4,-32116
20002580:	003b0640 	call	2003b064 <printf>
#endif  // defined(PTP_SUPPORT)
}
20002584:	0001883a 	nop
20002588:	e037883a 	mov	sp,fp
2000258c:	dfc00117 	ldw	ra,4(sp)
20002590:	df000017 	ldw	fp,0(sp)
20002594:	dec00204 	addi	sp,sp,8
20002598:	f800283a 	ret

2000259c <act_cmd_7>:
//! @param[in] arg   : argument
//
//! @return None
//------------------------------------------------------------------------------
static void act_cmd_7(u32 arg)
{
2000259c:	defffb04 	addi	sp,sp,-20
200025a0:	dfc00415 	stw	ra,16(sp)
200025a4:	df000315 	stw	fp,12(sp)
200025a8:	df000304 	addi	fp,sp,12
200025ac:	e13fff15 	stw	r4,-4(fp)
	printf("Action Command function 7. arg = %d\r\n", (int)arg);
200025b0:	e0bfff17 	ldw	r2,-4(fp)
200025b4:	100b883a 	mov	r5,r2
200025b8:	01080174 	movhi	r4,8197
200025bc:	21214304 	addi	r4,r4,-31476
200025c0:	003b0640 	call	2003b064 <printf>

#if defined(PTP_SUPPORT)
	u32 value_high, value_low;

	gev_get_scheduled_action_time_high(g_handle, &value_high);
200025c4:	d0a01a17 	ldw	r2,-32664(gp)
200025c8:	e17ffd04 	addi	r5,fp,-12
200025cc:	1009883a 	mov	r4,r2
200025d0:	000cb700 	call	2000cb70 <gev_get_scheduled_action_time_high>
	gev_get_scheduled_action_time_low(g_handle, &value_low);
200025d4:	d0a01a17 	ldw	r2,-32664(gp)
200025d8:	e0fffe04 	addi	r3,fp,-8
200025dc:	180b883a 	mov	r5,r3
200025e0:	1009883a 	mov	r4,r2
200025e4:	000cc000 	call	2000cc00 <gev_get_scheduled_action_time_low>
	printf("Action Time High = %08x\r\n", (unsigned int)value_high);
200025e8:	e0bffd17 	ldw	r2,-12(fp)
200025ec:	100b883a 	mov	r5,r2
200025f0:	01080174 	movhi	r4,8197
200025f4:	21209c04 	addi	r4,r4,-32144
200025f8:	003b0640 	call	2003b064 <printf>
	printf("Action Time Low  = %08x\r\n", (unsigned int)value_low);
200025fc:	e0bffe17 	ldw	r2,-8(fp)
20002600:	100b883a 	mov	r5,r2
20002604:	01080174 	movhi	r4,8197
20002608:	2120a304 	addi	r4,r4,-32116
2000260c:	003b0640 	call	2003b064 <printf>
#endif  // defined(PTP_SUPPORT)
}
20002610:	0001883a 	nop
20002614:	e037883a 	mov	sp,fp
20002618:	dfc00117 	ldw	ra,4(sp)
2000261c:	df000017 	ldw	fp,0(sp)
20002620:	dec00204 	addi	sp,sp,8
20002624:	f800283a 	ret

20002628 <width_write>:
//! @param[in] p_data : Register value
//
//! @retval  0 : Success
//------------------------------------------------------------------------------
static int width_write(u32 arg, u32 *p_data)
{
20002628:	defffc04 	addi	sp,sp,-16
2000262c:	dfc00315 	stw	ra,12(sp)
20002630:	df000215 	stw	fp,8(sp)
20002634:	df000204 	addi	fp,sp,8
20002638:	e13ffe15 	stw	r4,-8(fp)
2000263c:	e17fff15 	stw	r5,-4(fp)
	printf("width_write() arg = %#x data = %d\r\n", (unsigned int)arg, (unsigned int)*p_data);
20002640:	e0bfff17 	ldw	r2,-4(fp)
20002644:	10800017 	ldw	r2,0(r2)
20002648:	100d883a 	mov	r6,r2
2000264c:	e17ffe17 	ldw	r5,-8(fp)
20002650:	01080174 	movhi	r4,8197
20002654:	21214d04 	addi	r4,r4,-31436
20002658:	003b0640 	call	2003b064 <printf>
	IOWR_ALTERA_AVALON_PIO_DATA(GEV_PIO_O_WIDTH_BASE, *p_data);
2000265c:	e0bfff17 	ldw	r2,-4(fp)
20002660:	10800017 	ldw	r2,0(r2)
20002664:	1007883a 	mov	r3,r2
20002668:	00808034 	movhi	r2,512
2000266c:	10802c04 	addi	r2,r2,176
20002670:	10c00035 	stwio	r3,0(r2)
	g_data_param.width = *p_data;
20002674:	e0bfff17 	ldw	r2,-4(fp)
20002678:	10c00017 	ldw	r3,0(r2)
2000267c:	00880334 	movhi	r2,8204
20002680:	10ab4404 	addi	r2,r2,-21232
20002684:	10c00215 	stw	r3,8(r2)
	return 0;
20002688:	0005883a 	mov	r2,zero
}
2000268c:	e037883a 	mov	sp,fp
20002690:	dfc00117 	ldw	ra,4(sp)
20002694:	df000017 	ldw	fp,0(sp)
20002698:	dec00204 	addi	sp,sp,8
2000269c:	f800283a 	ret

200026a0 <height_write>:
//! @param[in] p_data : Register value
//
//! @retval  0 : Success
//------------------------------------------------------------------------------
static int height_write(u32 arg, u32 *p_data)
{
200026a0:	defffc04 	addi	sp,sp,-16
200026a4:	dfc00315 	stw	ra,12(sp)
200026a8:	df000215 	stw	fp,8(sp)
200026ac:	df000204 	addi	fp,sp,8
200026b0:	e13ffe15 	stw	r4,-8(fp)
200026b4:	e17fff15 	stw	r5,-4(fp)
	printf("height_write() arg = %#x data = %d\r\n", (unsigned int)arg, (unsigned int)*p_data);
200026b8:	e0bfff17 	ldw	r2,-4(fp)
200026bc:	10800017 	ldw	r2,0(r2)
200026c0:	100d883a 	mov	r6,r2
200026c4:	e17ffe17 	ldw	r5,-8(fp)
200026c8:	01080174 	movhi	r4,8197
200026cc:	21215604 	addi	r4,r4,-31400
200026d0:	003b0640 	call	2003b064 <printf>
	IOWR_ALTERA_AVALON_PIO_DATA(GEV_PIO_O_HEIGHT_BASE, *p_data);
200026d4:	e0bfff17 	ldw	r2,-4(fp)
200026d8:	10800017 	ldw	r2,0(r2)
200026dc:	1007883a 	mov	r3,r2
200026e0:	00808034 	movhi	r2,512
200026e4:	10802004 	addi	r2,r2,128
200026e8:	10c00035 	stwio	r3,0(r2)
	g_data_param.height = *p_data;
200026ec:	e0bfff17 	ldw	r2,-4(fp)
200026f0:	10c00017 	ldw	r3,0(r2)
200026f4:	00880334 	movhi	r2,8204
200026f8:	10ab4404 	addi	r2,r2,-21232
200026fc:	10c00315 	stw	r3,12(r2)

	return 0;
20002700:	0005883a 	mov	r2,zero
}
20002704:	e037883a 	mov	sp,fp
20002708:	dfc00117 	ldw	ra,4(sp)
2000270c:	df000017 	ldw	fp,0(sp)
20002710:	dec00204 	addi	sp,sp,8
20002714:	f800283a 	ret

20002718 <width_max_write>:
//! @param[in] p_data : Register value
//
//! @retval  0 : Success
//------------------------------------------------------------------------------
static int width_max_write(u32 arg, u32 *p_data)
{
20002718:	defffc04 	addi	sp,sp,-16
2000271c:	dfc00315 	stw	ra,12(sp)
20002720:	df000215 	stw	fp,8(sp)
20002724:	df000204 	addi	fp,sp,8
20002728:	e13ffe15 	stw	r4,-8(fp)
2000272c:	e17fff15 	stw	r5,-4(fp)
	printf("width_max_write() arg = %#x data = %d\r\n", (unsigned int)arg, (unsigned int)*p_data);
20002730:	e0bfff17 	ldw	r2,-4(fp)
20002734:	10800017 	ldw	r2,0(r2)
20002738:	100d883a 	mov	r6,r2
2000273c:	e17ffe17 	ldw	r5,-8(fp)
20002740:	01080174 	movhi	r4,8197
20002744:	21216004 	addi	r4,r4,-31360
20002748:	003b0640 	call	2003b064 <printf>
	IOWR_ALTERA_AVALON_PIO_DATA(GEV_PIO_O_WIDTH_MAX_BASE, *p_data);
2000274c:	e0bfff17 	ldw	r2,-4(fp)
20002750:	10800017 	ldw	r2,0(r2)
20002754:	1007883a 	mov	r3,r2
20002758:	00808034 	movhi	r2,512
2000275c:	10802804 	addi	r2,r2,160
20002760:	10c00035 	stwio	r3,0(r2)
	g_data_param.sensor_width = *p_data;
20002764:	e0bfff17 	ldw	r2,-4(fp)
20002768:	10c00017 	ldw	r3,0(r2)
2000276c:	00880334 	movhi	r2,8204
20002770:	10ab4404 	addi	r2,r2,-21232
20002774:	10c00015 	stw	r3,0(r2)
	return 0;
20002778:	0005883a 	mov	r2,zero
}
2000277c:	e037883a 	mov	sp,fp
20002780:	dfc00117 	ldw	ra,4(sp)
20002784:	df000017 	ldw	fp,0(sp)
20002788:	dec00204 	addi	sp,sp,8
2000278c:	f800283a 	ret

20002790 <width_max_read>:
//! @param[in] p_data : Register value
//
//! @retval  0 : Success
//------------------------------------------------------------------------------
static int width_max_read(u32 arg, u32 *p_data)
{
20002790:	defffc04 	addi	sp,sp,-16
20002794:	dfc00315 	stw	ra,12(sp)
20002798:	df000215 	stw	fp,8(sp)
2000279c:	df000204 	addi	fp,sp,8
200027a0:	e13ffe15 	stw	r4,-8(fp)
200027a4:	e17fff15 	stw	r5,-4(fp)
	*p_data = IORD_ALTERA_AVALON_PIO_DATA(GEV_PIO_O_WIDTH_MAX_BASE);
200027a8:	00808034 	movhi	r2,512
200027ac:	10802804 	addi	r2,r2,160
200027b0:	10800037 	ldwio	r2,0(r2)
200027b4:	1007883a 	mov	r3,r2
200027b8:	e0bfff17 	ldw	r2,-4(fp)
200027bc:	10c00015 	stw	r3,0(r2)
	printf("width_max_read() arg = %#x data = %d\r\n", (unsigned int)arg, (unsigned int)*p_data);
200027c0:	e0bfff17 	ldw	r2,-4(fp)
200027c4:	10800017 	ldw	r2,0(r2)
200027c8:	100d883a 	mov	r6,r2
200027cc:	e17ffe17 	ldw	r5,-8(fp)
200027d0:	01080174 	movhi	r4,8197
200027d4:	21216a04 	addi	r4,r4,-31320
200027d8:	003b0640 	call	2003b064 <printf>

	return 0;
200027dc:	0005883a 	mov	r2,zero
}
200027e0:	e037883a 	mov	sp,fp
200027e4:	dfc00117 	ldw	ra,4(sp)
200027e8:	df000017 	ldw	fp,0(sp)
200027ec:	dec00204 	addi	sp,sp,8
200027f0:	f800283a 	ret

200027f4 <height_max_write>:
//! @param[in] p_data : Register value
//
//! @retval  0 : Success
//------------------------------------------------------------------------------
static int height_max_write(u32 arg, u32 *p_data)
{
200027f4:	defffc04 	addi	sp,sp,-16
200027f8:	dfc00315 	stw	ra,12(sp)
200027fc:	df000215 	stw	fp,8(sp)
20002800:	df000204 	addi	fp,sp,8
20002804:	e13ffe15 	stw	r4,-8(fp)
20002808:	e17fff15 	stw	r5,-4(fp)
	printf("height_max_write() arg = %#x data = %d\r\n", (unsigned int)arg, (unsigned int)*p_data);
2000280c:	e0bfff17 	ldw	r2,-4(fp)
20002810:	10800017 	ldw	r2,0(r2)
20002814:	100d883a 	mov	r6,r2
20002818:	e17ffe17 	ldw	r5,-8(fp)
2000281c:	01080174 	movhi	r4,8197
20002820:	21217404 	addi	r4,r4,-31280
20002824:	003b0640 	call	2003b064 <printf>
	IOWR_ALTERA_AVALON_PIO_DATA(GEV_PIO_O_HEIGHT_MAX_BASE, *p_data);
20002828:	e0bfff17 	ldw	r2,-4(fp)
2000282c:	10800017 	ldw	r2,0(r2)
20002830:	1007883a 	mov	r3,r2
20002834:	00808034 	movhi	r2,512
20002838:	10801c04 	addi	r2,r2,112
2000283c:	10c00035 	stwio	r3,0(r2)
	g_data_param.sensor_height = *p_data;
20002840:	e0bfff17 	ldw	r2,-4(fp)
20002844:	10c00017 	ldw	r3,0(r2)
20002848:	00880334 	movhi	r2,8204
2000284c:	10ab4404 	addi	r2,r2,-21232
20002850:	10c00115 	stw	r3,4(r2)

	return 0;
20002854:	0005883a 	mov	r2,zero
}
20002858:	e037883a 	mov	sp,fp
2000285c:	dfc00117 	ldw	ra,4(sp)
20002860:	df000017 	ldw	fp,0(sp)
20002864:	dec00204 	addi	sp,sp,8
20002868:	f800283a 	ret

2000286c <height_max_read>:
//! @param[in] p_data : Register value
//
//! @retval  0 : Success
//------------------------------------------------------------------------------
static int height_max_read(u32 arg, u32 *p_data)
{
2000286c:	defffc04 	addi	sp,sp,-16
20002870:	dfc00315 	stw	ra,12(sp)
20002874:	df000215 	stw	fp,8(sp)
20002878:	df000204 	addi	fp,sp,8
2000287c:	e13ffe15 	stw	r4,-8(fp)
20002880:	e17fff15 	stw	r5,-4(fp)
	*p_data = IORD_ALTERA_AVALON_PIO_DATA(GEV_PIO_O_HEIGHT_MAX_BASE);
20002884:	00808034 	movhi	r2,512
20002888:	10801c04 	addi	r2,r2,112
2000288c:	10800037 	ldwio	r2,0(r2)
20002890:	1007883a 	mov	r3,r2
20002894:	e0bfff17 	ldw	r2,-4(fp)
20002898:	10c00015 	stw	r3,0(r2)
	printf("height_max_read() arg = %#x data = %d\r\n", (unsigned int)arg, (unsigned int)*p_data);
2000289c:	e0bfff17 	ldw	r2,-4(fp)
200028a0:	10800017 	ldw	r2,0(r2)
200028a4:	100d883a 	mov	r6,r2
200028a8:	e17ffe17 	ldw	r5,-8(fp)
200028ac:	01080174 	movhi	r4,8197
200028b0:	21217f04 	addi	r4,r4,-31236
200028b4:	003b0640 	call	2003b064 <printf>

	return 0;
200028b8:	0005883a 	mov	r2,zero
}
200028bc:	e037883a 	mov	sp,fp
200028c0:	dfc00117 	ldw	ra,4(sp)
200028c4:	df000017 	ldw	fp,0(sp)
200028c8:	dec00204 	addi	sp,sp,8
200028cc:	f800283a 	ret

200028d0 <offset_x_write>:
//! @param[in] p_data : Register value
//
//! @retval  0 : Success
//------------------------------------------------------------------------------
static int offset_x_write(u32 arg, u32 *p_data)
{
200028d0:	defffc04 	addi	sp,sp,-16
200028d4:	dfc00315 	stw	ra,12(sp)
200028d8:	df000215 	stw	fp,8(sp)
200028dc:	df000204 	addi	fp,sp,8
200028e0:	e13ffe15 	stw	r4,-8(fp)
200028e4:	e17fff15 	stw	r5,-4(fp)
	printf("offset_x_write() arg = %#x data = %#x\r\n", (unsigned int)arg, (unsigned int)*p_data);
200028e8:	e0bfff17 	ldw	r2,-4(fp)
200028ec:	10800017 	ldw	r2,0(r2)
200028f0:	100d883a 	mov	r6,r2
200028f4:	e17ffe17 	ldw	r5,-8(fp)
200028f8:	01080174 	movhi	r4,8197
200028fc:	21218904 	addi	r4,r4,-31196
20002900:	003b0640 	call	2003b064 <printf>
	IOWR_ALTERA_AVALON_PIO_DATA(GEV_PIO_O_OFFSET_X_BASE, *p_data);
20002904:	e0bfff17 	ldw	r2,-4(fp)
20002908:	10800017 	ldw	r2,0(r2)
2000290c:	1007883a 	mov	r3,r2
20002910:	00808034 	movhi	r2,512
20002914:	10802404 	addi	r2,r2,144
20002918:	10c00035 	stwio	r3,0(r2)
	g_data_param.offset_x = *p_data;
2000291c:	e0bfff17 	ldw	r2,-4(fp)
20002920:	10c00017 	ldw	r3,0(r2)
20002924:	00880334 	movhi	r2,8204
20002928:	10ab4404 	addi	r2,r2,-21232
2000292c:	10c00415 	stw	r3,16(r2)

	return 0;
20002930:	0005883a 	mov	r2,zero
}
20002934:	e037883a 	mov	sp,fp
20002938:	dfc00117 	ldw	ra,4(sp)
2000293c:	df000017 	ldw	fp,0(sp)
20002940:	dec00204 	addi	sp,sp,8
20002944:	f800283a 	ret

20002948 <offset_y_write>:
//! @param[in] p_data : Register value
//
//! @retval  0 : Success
//------------------------------------------------------------------------------
static int offset_y_write(u32 arg, u32 *p_data)
{
20002948:	defffc04 	addi	sp,sp,-16
2000294c:	dfc00315 	stw	ra,12(sp)
20002950:	df000215 	stw	fp,8(sp)
20002954:	df000204 	addi	fp,sp,8
20002958:	e13ffe15 	stw	r4,-8(fp)
2000295c:	e17fff15 	stw	r5,-4(fp)
	printf("offset_y_write() arg = %#x data = %#x\r\n", (unsigned int)arg, (unsigned int)*p_data);
20002960:	e0bfff17 	ldw	r2,-4(fp)
20002964:	10800017 	ldw	r2,0(r2)
20002968:	100d883a 	mov	r6,r2
2000296c:	e17ffe17 	ldw	r5,-8(fp)
20002970:	01080174 	movhi	r4,8197
20002974:	21219304 	addi	r4,r4,-31156
20002978:	003b0640 	call	2003b064 <printf>
	IOWR_ALTERA_AVALON_PIO_DATA(GEV_PIO_O_OFFSET_Y_BASE, *p_data);
2000297c:	e0bfff17 	ldw	r2,-4(fp)
20002980:	10800017 	ldw	r2,0(r2)
20002984:	1007883a 	mov	r3,r2
20002988:	00808034 	movhi	r2,512
2000298c:	10801804 	addi	r2,r2,96
20002990:	10c00035 	stwio	r3,0(r2)
	g_data_param.offset_y = *p_data;
20002994:	e0bfff17 	ldw	r2,-4(fp)
20002998:	10c00017 	ldw	r3,0(r2)
2000299c:	00880334 	movhi	r2,8204
200029a0:	10ab4404 	addi	r2,r2,-21232
200029a4:	10c00515 	stw	r3,20(r2)

	return 0;
200029a8:	0005883a 	mov	r2,zero
}
200029ac:	e037883a 	mov	sp,fp
200029b0:	dfc00117 	ldw	ra,4(sp)
200029b4:	df000017 	ldw	fp,0(sp)
200029b8:	dec00204 	addi	sp,sp,8
200029bc:	f800283a 	ret

200029c0 <pixel_format_write>:
//! @param[in] p_data : Register value
//
//! @retval  0 : Success
//------------------------------------------------------------------------------
static int pixel_format_write(u32 arg, u32 *p_data)
{
200029c0:	defffc04 	addi	sp,sp,-16
200029c4:	dfc00315 	stw	ra,12(sp)
200029c8:	df000215 	stw	fp,8(sp)
200029cc:	df000204 	addi	fp,sp,8
200029d0:	e13ffe15 	stw	r4,-8(fp)
200029d4:	e17fff15 	stw	r5,-4(fp)
	printf("pixel_format_write() arg = %#x data = %#x\r\n", (unsigned int)arg, (unsigned int)*p_data);
200029d8:	e0bfff17 	ldw	r2,-4(fp)
200029dc:	10800017 	ldw	r2,0(r2)
200029e0:	100d883a 	mov	r6,r2
200029e4:	e17ffe17 	ldw	r5,-8(fp)
200029e8:	01080174 	movhi	r4,8197
200029ec:	21219d04 	addi	r4,r4,-31116
200029f0:	003b0640 	call	2003b064 <printf>
	IOWR_ALTERA_AVALON_PIO_DATA(GEV_PIO_O_PIXEL_FORMAT_BASE, *p_data);
200029f4:	e0bfff17 	ldw	r2,-4(fp)
200029f8:	10800017 	ldw	r2,0(r2)
200029fc:	1007883a 	mov	r3,r2
20002a00:	00808034 	movhi	r2,512
20002a04:	10801404 	addi	r2,r2,80
20002a08:	10c00035 	stwio	r3,0(r2)
	g_data_param.pixel_format = *p_data;
20002a0c:	e0bfff17 	ldw	r2,-4(fp)
20002a10:	10c00017 	ldw	r3,0(r2)
20002a14:	00880334 	movhi	r2,8204
20002a18:	10ab4404 	addi	r2,r2,-21232
20002a1c:	10c00615 	stw	r3,24(r2)

	return 0;
20002a20:	0005883a 	mov	r2,zero
}
20002a24:	e037883a 	mov	sp,fp
20002a28:	dfc00117 	ldw	ra,4(sp)
20002a2c:	df000017 	ldw	fp,0(sp)
20002a30:	dec00204 	addi	sp,sp,8
20002a34:	f800283a 	ret

20002a38 <payload_type_write>:
//! @param[in] p_data : Register value
//
//! @retval  0 : Success
//------------------------------------------------------------------------------
static int payload_type_write(u32 arg, u32 *p_data)
{
20002a38:	defffc04 	addi	sp,sp,-16
20002a3c:	dfc00315 	stw	ra,12(sp)
20002a40:	df000215 	stw	fp,8(sp)
20002a44:	df000204 	addi	fp,sp,8
20002a48:	e13ffe15 	stw	r4,-8(fp)
20002a4c:	e17fff15 	stw	r5,-4(fp)
	printf("payload_type_write() arg = %#x data = %#x\r\n", (unsigned int)arg, (unsigned int)*p_data);
20002a50:	e0bfff17 	ldw	r2,-4(fp)
20002a54:	10800017 	ldw	r2,0(r2)
20002a58:	100d883a 	mov	r6,r2
20002a5c:	e17ffe17 	ldw	r5,-8(fp)
20002a60:	01080174 	movhi	r4,8197
20002a64:	2121a804 	addi	r4,r4,-31072
20002a68:	003b0640 	call	2003b064 <printf>
	IOWR_ALTERA_AVALON_PIO_DATA(GEV_PIO_O_PAYLOAD_TYPE_BASE, *p_data);
20002a6c:	e0bfff17 	ldw	r2,-4(fp)
20002a70:	10800017 	ldw	r2,0(r2)
20002a74:	1007883a 	mov	r3,r2
20002a78:	00808034 	movhi	r2,512
20002a7c:	10801004 	addi	r2,r2,64
20002a80:	10c00035 	stwio	r3,0(r2)
	g_data_param.payload_type = *p_data;
20002a84:	e0bfff17 	ldw	r2,-4(fp)
20002a88:	10c00017 	ldw	r3,0(r2)
20002a8c:	00880334 	movhi	r2,8204
20002a90:	10ab4404 	addi	r2,r2,-21232
20002a94:	10c00715 	stw	r3,28(r2)

	return 0;
20002a98:	0005883a 	mov	r2,zero
}
20002a9c:	e037883a 	mov	sp,fp
20002aa0:	dfc00117 	ldw	ra,4(sp)
20002aa4:	df000017 	ldw	fp,0(sp)
20002aa8:	dec00204 	addi	sp,sp,8
20002aac:	f800283a 	ret

20002ab0 <acquisition_start>:
//! @param[in] p_data : Register value
//
//! @retval  0 : Success
//------------------------------------------------------------------------------
static int acquisition_start(u32 arg, u32 *p_data)
{
20002ab0:	defffc04 	addi	sp,sp,-16
20002ab4:	dfc00315 	stw	ra,12(sp)
20002ab8:	df000215 	stw	fp,8(sp)
20002abc:	df000204 	addi	fp,sp,8
20002ac0:	e13ffe15 	stw	r4,-8(fp)
20002ac4:	e17fff15 	stw	r5,-4(fp)
	printf("acquisition_start() arg = %#x data = %#x\r\n", (unsigned int)arg, (unsigned int)*p_data);
20002ac8:	e0bfff17 	ldw	r2,-4(fp)
20002acc:	10800017 	ldw	r2,0(r2)
20002ad0:	100d883a 	mov	r6,r2
20002ad4:	e17ffe17 	ldw	r5,-8(fp)
20002ad8:	01080174 	movhi	r4,8197
20002adc:	2121b304 	addi	r4,r4,-31028
20002ae0:	003b0640 	call	2003b064 <printf>

	if ((g_data_param.payload_type == GVSP_PAYLOAD_TYPE_IMAGE_DATA_UNCOMPRESSED) ||
20002ae4:	00880334 	movhi	r2,8204
20002ae8:	10ab4404 	addi	r2,r2,-21232
20002aec:	10800717 	ldw	r2,28(r2)
20002af0:	10800060 	cmpeqi	r2,r2,1
20002af4:	1000051e 	bne	r2,zero,20002b0c <acquisition_start+0x5c>
		(g_data_param.payload_type == GVSP_PAYLOAD_TYPE_IMAGE_EXTENDED_CHUNK)) {
20002af8:	00880334 	movhi	r2,8204
20002afc:	10ab4404 	addi	r2,r2,-21232
20002b00:	10800717 	ldw	r2,28(r2)
//------------------------------------------------------------------------------
static int acquisition_start(u32 arg, u32 *p_data)
{
	printf("acquisition_start() arg = %#x data = %#x\r\n", (unsigned int)arg, (unsigned int)*p_data);

	if ((g_data_param.payload_type == GVSP_PAYLOAD_TYPE_IMAGE_DATA_UNCOMPRESSED) ||
20002b04:	10900058 	cmpnei	r2,r2,16385
20002b08:	10001a1e 	bne	r2,zero,20002b74 <acquisition_start+0xc4>
		(g_data_param.payload_type == GVSP_PAYLOAD_TYPE_IMAGE_EXTENDED_CHUNK)) {
		if (g_data_param.offset_x + g_data_param.width > g_data_param.sensor_width) {
20002b0c:	00880334 	movhi	r2,8204
20002b10:	10ab4404 	addi	r2,r2,-21232
20002b14:	10c00417 	ldw	r3,16(r2)
20002b18:	00880334 	movhi	r2,8204
20002b1c:	10ab4404 	addi	r2,r2,-21232
20002b20:	10800217 	ldw	r2,8(r2)
20002b24:	1887883a 	add	r3,r3,r2
20002b28:	00880334 	movhi	r2,8204
20002b2c:	10ab4404 	addi	r2,r2,-21232
20002b30:	10800017 	ldw	r2,0(r2)
20002b34:	10c0022e 	bgeu	r2,r3,20002b40 <acquisition_start+0x90>
			return -1;
20002b38:	00bfffc4 	movi	r2,-1
20002b3c:	00000e06 	br	20002b78 <acquisition_start+0xc8>
		}
		if (g_data_param.offset_y + g_data_param.height > g_data_param.sensor_height) {
20002b40:	00880334 	movhi	r2,8204
20002b44:	10ab4404 	addi	r2,r2,-21232
20002b48:	10c00517 	ldw	r3,20(r2)
20002b4c:	00880334 	movhi	r2,8204
20002b50:	10ab4404 	addi	r2,r2,-21232
20002b54:	10800317 	ldw	r2,12(r2)
20002b58:	1887883a 	add	r3,r3,r2
20002b5c:	00880334 	movhi	r2,8204
20002b60:	10ab4404 	addi	r2,r2,-21232
20002b64:	10800117 	ldw	r2,4(r2)
20002b68:	10c0022e 	bgeu	r2,r3,20002b74 <acquisition_start+0xc4>
			return -1;
20002b6c:	00bfffc4 	movi	r2,-1
20002b70:	00000106 	br	20002b78 <acquisition_start+0xc8>
		}
	}

	return 0;
20002b74:	0005883a 	mov	r2,zero
}
20002b78:	e037883a 	mov	sp,fp
20002b7c:	dfc00117 	ldw	ra,4(sp)
20002b80:	df000017 	ldw	fp,0(sp)
20002b84:	dec00204 	addi	sp,sp,8
20002b88:	f800283a 	ret

20002b8c <acquisition_stop>:
//! @param[in] p_data : Register value
//
//! @retval  0 : Success
//------------------------------------------------------------------------------
static int acquisition_stop(u32 arg, u32 *p_data)
{
20002b8c:	defffc04 	addi	sp,sp,-16
20002b90:	dfc00315 	stw	ra,12(sp)
20002b94:	df000215 	stw	fp,8(sp)
20002b98:	df000204 	addi	fp,sp,8
20002b9c:	e13ffe15 	stw	r4,-8(fp)
20002ba0:	e17fff15 	stw	r5,-4(fp)
	printf("acquisition_stop() arg = %#x data = %#x\r\n", (unsigned int)arg, (unsigned int)*p_data);
20002ba4:	e0bfff17 	ldw	r2,-4(fp)
20002ba8:	10800017 	ldw	r2,0(r2)
20002bac:	100d883a 	mov	r6,r2
20002bb0:	e17ffe17 	ldw	r5,-8(fp)
20002bb4:	01080174 	movhi	r4,8197
20002bb8:	2121be04 	addi	r4,r4,-30984
20002bbc:	003b0640 	call	2003b064 <printf>
	g_gvsp_active = FALSE;
20002bc0:	d0201405 	stb	zero,-32688(gp)

	return 0;
20002bc4:	0005883a 	mov	r2,zero
}
20002bc8:	e037883a 	mov	sp,fp
20002bcc:	dfc00117 	ldw	ra,4(sp)
20002bd0:	df000017 	ldw	fp,0(sp)
20002bd4:	dec00204 	addi	sp,sp,8
20002bd8:	f800283a 	ret

20002bdc <field_count_write>:
//! @param[in] p_data : Register value
//
//! @retval  0 : Success
//------------------------------------------------------------------------------
static int field_count_write(u32 arg, u32 *p_data)
{
20002bdc:	defffc04 	addi	sp,sp,-16
20002be0:	dfc00315 	stw	ra,12(sp)
20002be4:	df000215 	stw	fp,8(sp)
20002be8:	df000204 	addi	fp,sp,8
20002bec:	e13ffe15 	stw	r4,-8(fp)
20002bf0:	e17fff15 	stw	r5,-4(fp)
	printf("field_count_write() arg = %#x data = %#x\r\n", (unsigned int)arg, (unsigned int)*p_data);
20002bf4:	e0bfff17 	ldw	r2,-4(fp)
20002bf8:	10800017 	ldw	r2,0(r2)
20002bfc:	100d883a 	mov	r6,r2
20002c00:	e17ffe17 	ldw	r5,-8(fp)
20002c04:	01080174 	movhi	r4,8197
20002c08:	2121c904 	addi	r4,r4,-30940
20002c0c:	003b0640 	call	2003b064 <printf>
	g_data_param.field_count = *p_data;
20002c10:	e0bfff17 	ldw	r2,-4(fp)
20002c14:	10c00017 	ldw	r3,0(r2)
20002c18:	00880334 	movhi	r2,8204
20002c1c:	10ab4404 	addi	r2,r2,-21232
20002c20:	10c00815 	stw	r3,32(r2)

	return 0;
20002c24:	0005883a 	mov	r2,zero
}
20002c28:	e037883a 	mov	sp,fp
20002c2c:	dfc00117 	ldw	ra,4(sp)
20002c30:	df000017 	ldw	fp,0(sp)
20002c34:	dec00204 	addi	sp,sp,8
20002c38:	f800283a 	ret

20002c3c <flash_open_dev>:
//
//! @retval  0     : Error
//! @retval  Other : device handle
//------------------------------------------------------------------------------
static void* flash_open_dev(const char* name)
{
20002c3c:	defffd04 	addi	sp,sp,-12
20002c40:	dfc00215 	stw	ra,8(sp)
20002c44:	df000115 	stw	fp,4(sp)
20002c48:	df000104 	addi	fp,sp,4
20002c4c:	e13fff15 	stw	r4,-4(fp)
	return (void *)alt_flash_open_dev(name);
20002c50:	e13fff17 	ldw	r4,-4(fp)
20002c54:	0044fa80 	call	20044fa8 <alt_flash_open_dev>
}
20002c58:	e037883a 	mov	sp,fp
20002c5c:	dfc00117 	ldw	ra,4(sp)
20002c60:	df000017 	ldw	fp,0(sp)
20002c64:	dec00204 	addi	sp,sp,8
20002c68:	f800283a 	ret

20002c6c <flash_close_dev>:
//! @param[in] name : device handle
//
//! @return  None
//------------------------------------------------------------------------------
static void flash_close_dev(void *p_dev)
{
20002c6c:	defffd04 	addi	sp,sp,-12
20002c70:	dfc00215 	stw	ra,8(sp)
20002c74:	df000115 	stw	fp,4(sp)
20002c78:	df000104 	addi	fp,sp,4
20002c7c:	e13fff15 	stw	r4,-4(fp)
	alt_flash_close_dev((alt_flash_fd *)p_dev);
20002c80:	e13fff17 	ldw	r4,-4(fp)
20002c84:	00450100 	call	20045010 <alt_flash_close_dev>
}
20002c88:	0001883a 	nop
20002c8c:	e037883a 	mov	sp,fp
20002c90:	dfc00117 	ldw	ra,4(sp)
20002c94:	df000017 	ldw	fp,0(sp)
20002c98:	dec00204 	addi	sp,sp,8
20002c9c:	f800283a 	ret

20002ca0 <flash_write_dev>:
//! @param[in] len    : length to write
//
//! @retval  written size
//------------------------------------------------------------------------------
static int flash_write_dev(void* p_dev, int offset, const void* p_src, int len)
{
20002ca0:	deffef04 	addi	sp,sp,-68
20002ca4:	dfc01015 	stw	ra,64(sp)
20002ca8:	df000f15 	stw	fp,60(sp)
20002cac:	df000f04 	addi	fp,sp,60
20002cb0:	e13ffc15 	stw	r4,-16(fp)
20002cb4:	e17ffd15 	stw	r5,-12(fp)
20002cb8:	e1bffe15 	stw	r6,-8(fp)
20002cbc:	e1ffff15 	stw	r7,-4(fp)
//	return alt_write_flash((alt_flash_fd *)p_dev, offset, p_src, len);

	const int access_offset = ROUND_OFF(offset, SF_CTR_AVL_MEM_SECTOR_SIZE);
20002cc0:	e0bffd17 	ldw	r2,-12(fp)
20002cc4:	1000020e 	bge	r2,zero,20002cd0 <flash_write_dev+0x30>
20002cc8:	00ffffd4 	movui	r3,65535
20002ccc:	10c5883a 	add	r2,r2,r3
20002cd0:	1005d43a 	srai	r2,r2,16
20002cd4:	1004943a 	slli	r2,r2,16
20002cd8:	e0bff115 	stw	r2,-60(fp)
	const int access_size
	 = ((((offset - access_offset) + (int) len) > SF_CTR_AVL_MEM_SECTOR_SIZE) ? (SF_CTR_AVL_MEM_SECTOR_SIZE * 2) : SF_CTR_AVL_MEM_SECTOR_SIZE);
20002cdc:	e0fffd17 	ldw	r3,-12(fp)
20002ce0:	e0bff117 	ldw	r2,-60(fp)
20002ce4:	1887c83a 	sub	r3,r3,r2
20002ce8:	e0bfff17 	ldw	r2,-4(fp)
20002cec:	1885883a 	add	r2,r3,r2
20002cf0:	00c00074 	movhi	r3,1
20002cf4:	1880020e 	bge	r3,r2,20002d00 <flash_write_dev+0x60>
20002cf8:	008000b4 	movhi	r2,2
20002cfc:	00000106 	br	20002d04 <flash_write_dev+0x64>
20002d00:	00800074 	movhi	r2,1
static int flash_write_dev(void* p_dev, int offset, const void* p_src, int len)
{
//	return alt_write_flash((alt_flash_fd *)p_dev, offset, p_src, len);

	const int access_offset = ROUND_OFF(offset, SF_CTR_AVL_MEM_SECTOR_SIZE);
	const int access_size
20002d04:	e0bff215 	stw	r2,-56(fp)
	 = ((((offset - access_offset) + (int) len) > SF_CTR_AVL_MEM_SECTOR_SIZE) ? (SF_CTR_AVL_MEM_SECTOR_SIZE * 2) : SF_CTR_AVL_MEM_SECTOR_SIZE);
	static u8 cache[SF_CTR_AVL_MEM_SECTOR_SIZE * 2];

	int ret;

	if (len <= 0) goto DONE;
20002d08:	e0bfff17 	ldw	r2,-4(fp)
20002d0c:	0080320e 	bge	zero,r2,20002dd8 <flash_write_dev+0x138>
20002d10:	e0bffc17 	ldw	r2,-16(fp)
20002d14:	e0bff515 	stw	r2,-44(fp)
20002d18:	e0bff117 	ldw	r2,-60(fp)
20002d1c:	e0bff615 	stw	r2,-40(fp)
20002d20:	008802b4 	movhi	r2,8202
20002d24:	10aabf04 	addi	r2,r2,-21764
20002d28:	e0bff715 	stw	r2,-36(fp)
20002d2c:	e0bff217 	ldw	r2,-56(fp)
20002d30:	e0bff815 	stw	r2,-32(fp)
 */
static __inline__ int __attribute__ ((always_inline)) alt_read_flash( 
                                      alt_flash_fd* fd, int offset, 
                                      void* dest_addr, int length )
{
  return fd->read( fd, offset, dest_addr, length );
20002d34:	e0bff517 	ldw	r2,-44(fp)
20002d38:	10800617 	ldw	r2,24(r2)
20002d3c:	e1fff817 	ldw	r7,-32(fp)
20002d40:	e1bff717 	ldw	r6,-36(fp)
20002d44:	e17ff617 	ldw	r5,-40(fp)
20002d48:	e13ff517 	ldw	r4,-44(fp)
20002d4c:	103ee83a 	callr	r2

	// reads the flash memory
	ret = alt_read_flash((alt_flash_fd *)p_dev, access_offset, &(cache[0]), access_size);
20002d50:	e0bff415 	stw	r2,-48(fp)
	if (ret != 0) goto ERR1;
20002d54:	e0bff417 	ldw	r2,-48(fp)
20002d58:	1000221e 	bne	r2,zero,20002de4 <flash_write_dev+0x144>

	// copies the write data to the buffer
	memcpy(&(cache[offset - access_offset]), p_src, len);
20002d5c:	e0fffd17 	ldw	r3,-12(fp)
20002d60:	e0bff117 	ldw	r2,-60(fp)
20002d64:	1887c83a 	sub	r3,r3,r2
20002d68:	008802b4 	movhi	r2,8202
20002d6c:	10aabf04 	addi	r2,r2,-21764
20002d70:	1885883a 	add	r2,r3,r2
20002d74:	e0ffff17 	ldw	r3,-4(fp)
20002d78:	180d883a 	mov	r6,r3
20002d7c:	e17ffe17 	ldw	r5,-8(fp)
20002d80:	1009883a 	mov	r4,r2
20002d84:	003adc40 	call	2003adc4 <memcpy>
20002d88:	e0bffc17 	ldw	r2,-16(fp)
20002d8c:	e0bff315 	stw	r2,-52(fp)
20002d90:	e0bff117 	ldw	r2,-60(fp)
20002d94:	e0bff915 	stw	r2,-28(fp)
20002d98:	008802b4 	movhi	r2,8202
20002d9c:	10aabf04 	addi	r2,r2,-21764
20002da0:	e0bffa15 	stw	r2,-24(fp)
20002da4:	e0bff217 	ldw	r2,-56(fp)
20002da8:	e0bffb15 	stw	r2,-20(fp)
                                                           alt_flash_fd* fd, 
                                                           int offset, 
                                                           const void* src_addr, 
                                                           int length )
{
  return fd->write( fd, offset, src_addr, length );
20002dac:	e0bff317 	ldw	r2,-52(fp)
20002db0:	10800517 	ldw	r2,20(r2)
20002db4:	e1fffb17 	ldw	r7,-20(fp)
20002db8:	e1bffa17 	ldw	r6,-24(fp)
20002dbc:	e17ff917 	ldw	r5,-28(fp)
20002dc0:	e13ff317 	ldw	r4,-52(fp)
20002dc4:	103ee83a 	callr	r2

	// writes the flash memory
	ret = alt_write_flash((alt_flash_fd *)p_dev, access_offset, &(cache[0]), access_size);
20002dc8:	e0bff415 	stw	r2,-48(fp)
	if (ret != 0) goto ERR2;
20002dcc:	e0bff417 	ldw	r2,-48(fp)
20002dd0:	10000b1e 	bne	r2,zero,20002e00 <flash_write_dev+0x160>
20002dd4:	00000106 	br	20002ddc <flash_write_dev+0x13c>
	 = ((((offset - access_offset) + (int) len) > SF_CTR_AVL_MEM_SECTOR_SIZE) ? (SF_CTR_AVL_MEM_SECTOR_SIZE * 2) : SF_CTR_AVL_MEM_SECTOR_SIZE);
	static u8 cache[SF_CTR_AVL_MEM_SECTOR_SIZE * 2];

	int ret;

	if (len <= 0) goto DONE;
20002dd8:	0001883a 	nop
	// writes the flash memory
	ret = alt_write_flash((alt_flash_fd *)p_dev, access_offset, &(cache[0]), access_size);
	if (ret != 0) goto ERR2;

DONE:
	return 0;
20002ddc:	0005883a 	mov	r2,zero
20002de0:	00000d06 	br	20002e18 <flash_write_dev+0x178>

	if (len <= 0) goto DONE;

	// reads the flash memory
	ret = alt_read_flash((alt_flash_fd *)p_dev, access_offset, &(cache[0]), access_size);
	if (ret != 0) goto ERR1;
20002de4:	0001883a 	nop

DONE:
	return 0;

ERR1:
	printf("Fail : alt_read_flash() : ret =%d\n", ret);
20002de8:	e17ff417 	ldw	r5,-48(fp)
20002dec:	01080174 	movhi	r4,8197
20002df0:	2121d404 	addi	r4,r4,-30896
20002df4:	003b0640 	call	2003b064 <printf>
	return -1;
20002df8:	00bfffc4 	movi	r2,-1
20002dfc:	00000606 	br	20002e18 <flash_write_dev+0x178>
	// copies the write data to the buffer
	memcpy(&(cache[offset - access_offset]), p_src, len);

	// writes the flash memory
	ret = alt_write_flash((alt_flash_fd *)p_dev, access_offset, &(cache[0]), access_size);
	if (ret != 0) goto ERR2;
20002e00:	0001883a 	nop
ERR1:
	printf("Fail : alt_read_flash() : ret =%d\n", ret);
	return -1;

ERR2:
	printf("Fail : alt_write_flash() : ret =%d\n", ret);
20002e04:	e17ff417 	ldw	r5,-48(fp)
20002e08:	01080174 	movhi	r4,8197
20002e0c:	2121dd04 	addi	r4,r4,-30860
20002e10:	003b0640 	call	2003b064 <printf>
	return -1;
20002e14:	00bfffc4 	movi	r2,-1
}
20002e18:	e037883a 	mov	sp,fp
20002e1c:	dfc00117 	ldw	ra,4(sp)
20002e20:	df000017 	ldw	fp,0(sp)
20002e24:	dec00204 	addi	sp,sp,8
20002e28:	f800283a 	ret

20002e2c <flash_read_dev>:
//! @param[in] len    : length to read
//
//! @retval  read size
//------------------------------------------------------------------------------
static int flash_read_dev(void* p_dev, int offset, void* p_dst, int len)
{
20002e2c:	defff604 	addi	sp,sp,-40
20002e30:	dfc00915 	stw	ra,36(sp)
20002e34:	df000815 	stw	fp,32(sp)
20002e38:	df000804 	addi	fp,sp,32
20002e3c:	e13ffc15 	stw	r4,-16(fp)
20002e40:	e17ffd15 	stw	r5,-12(fp)
20002e44:	e1bffe15 	stw	r6,-8(fp)
20002e48:	e1ffff15 	stw	r7,-4(fp)
20002e4c:	e0bffc17 	ldw	r2,-16(fp)
20002e50:	e0bff815 	stw	r2,-32(fp)
20002e54:	e0bffd17 	ldw	r2,-12(fp)
20002e58:	e0bff915 	stw	r2,-28(fp)
20002e5c:	e0bffe17 	ldw	r2,-8(fp)
20002e60:	e0bffa15 	stw	r2,-24(fp)
20002e64:	e0bfff17 	ldw	r2,-4(fp)
20002e68:	e0bffb15 	stw	r2,-20(fp)
 */
static __inline__ int __attribute__ ((always_inline)) alt_read_flash( 
                                      alt_flash_fd* fd, int offset, 
                                      void* dest_addr, int length )
{
  return fd->read( fd, offset, dest_addr, length );
20002e6c:	e0bff817 	ldw	r2,-32(fp)
20002e70:	10800617 	ldw	r2,24(r2)
20002e74:	e1fffb17 	ldw	r7,-20(fp)
20002e78:	e1bffa17 	ldw	r6,-24(fp)
20002e7c:	e17ff917 	ldw	r5,-28(fp)
20002e80:	e13ff817 	ldw	r4,-32(fp)
20002e84:	103ee83a 	callr	r2
	return alt_read_flash((alt_flash_fd *)p_dev, offset, p_dst, len);
20002e88:	0001883a 	nop
}
20002e8c:	e037883a 	mov	sp,fp
20002e90:	dfc00117 	ldw	ra,4(sp)
20002e94:	df000017 	ldw	fp,0(sp)
20002e98:	dec00204 	addi	sp,sp,8
20002e9c:	f800283a 	ret

20002ea0 <ipconf_done>:
//! @param[in] p_data : Register value
//
//! @retval  0 : Success
//------------------------------------------------------------------------------
static int ipconf_done(u32 arg, u32 *p_data)
{
20002ea0:	defffc04 	addi	sp,sp,-16
20002ea4:	dfc00315 	stw	ra,12(sp)
20002ea8:	df000215 	stw	fp,8(sp)
20002eac:	df000204 	addi	fp,sp,8
20002eb0:	e13ffe15 	stw	r4,-8(fp)
20002eb4:	e17fff15 	stw	r5,-4(fp)
	if (*p_data == GVBS_IP_CONFIGURATION_LLA) {
20002eb8:	e0bfff17 	ldw	r2,-4(fp)
20002ebc:	10800017 	ldw	r2,0(r2)
20002ec0:	10800118 	cmpnei	r2,r2,4
20002ec4:	1000041e 	bne	r2,zero,20002ed8 <ipconf_done+0x38>
		printf("LLA IP Set End\n");
20002ec8:	01080174 	movhi	r4,8197
20002ecc:	2121e604 	addi	r4,r4,-30824
20002ed0:	003b1600 	call	2003b160 <puts>
20002ed4:	00000b06 	br	20002f04 <ipconf_done+0x64>
	}
	else if (*p_data == GVBS_IP_CONFIGURATION_DHCP) {
20002ed8:	e0bfff17 	ldw	r2,-4(fp)
20002edc:	10800017 	ldw	r2,0(r2)
20002ee0:	10800098 	cmpnei	r2,r2,2
20002ee4:	1000041e 	bne	r2,zero,20002ef8 <ipconf_done+0x58>
		printf("DHCP IP Set End\n");
20002ee8:	01080174 	movhi	r4,8197
20002eec:	2121ea04 	addi	r4,r4,-30808
20002ef0:	003b1600 	call	2003b160 <puts>
20002ef4:	00000306 	br	20002f04 <ipconf_done+0x64>
	}
	else { // *p_data == GVBS_IP_CONFIGURATION_PERSISTENT
		printf("Persistent IP Set End\n");
20002ef8:	01080174 	movhi	r4,8197
20002efc:	2121ee04 	addi	r4,r4,-30792
20002f00:	003b1600 	call	2003b160 <puts>
	}

	return 0;
20002f04:	0005883a 	mov	r2,zero
}
20002f08:	e037883a 	mov	sp,fp
20002f0c:	dfc00117 	ldw	ra,4(sp)
20002f10:	df000017 	ldw	fp,0(sp)
20002f14:	dec00204 	addi	sp,sp,8
20002f18:	f800283a 	ret

20002f1c <write_timestamp_sel>:
//! @param[in] p_data : Register value
//
//! @retval  0 : Success
//------------------------------------------------------------------------------
static int write_timestamp_sel(u32 arg, u32 *p_data)
{
20002f1c:	defffb04 	addi	sp,sp,-20
20002f20:	dfc00415 	stw	ra,16(sp)
20002f24:	df000315 	stw	fp,12(sp)
20002f28:	df000304 	addi	fp,sp,12
20002f2c:	e13ffe15 	stw	r4,-8(fp)
20002f30:	e17fff15 	stw	r5,-4(fp)
	gev_err_t ret;

	if (*p_data){
20002f34:	e0bfff17 	ldw	r2,-4(fp)
20002f38:	10800017 	ldw	r2,0(r2)
20002f3c:	10000626 	beq	r2,zero,20002f58 <write_timestamp_sel+0x3c>
		ret = gev_set_ref_timestamp_param(g_handle, TRUE);
20002f40:	d0a01a17 	ldw	r2,-32664(gp)
20002f44:	01400044 	movi	r5,1
20002f48:	1009883a 	mov	r4,r2
20002f4c:	000cedc0 	call	2000cedc <gev_set_ref_timestamp_param>
20002f50:	e0bffd15 	stw	r2,-12(fp)
20002f54:	00000506 	br	20002f6c <write_timestamp_sel+0x50>
	}
	else {
		ret = gev_set_ref_timestamp_param(g_handle, FALSE);
20002f58:	d0a01a17 	ldw	r2,-32664(gp)
20002f5c:	000b883a 	mov	r5,zero
20002f60:	1009883a 	mov	r4,r2
20002f64:	000cedc0 	call	2000cedc <gev_set_ref_timestamp_param>
20002f68:	e0bffd15 	stw	r2,-12(fp)
	}

	if ( ret == GEV_ERR_SUCCESS ) {
